(lp0
ccopy_reg
_reconstructor
p1
(cinc.baseclasses
Stop
p2
c__builtin__
object
p3
Ntp4
Rp5
(dp6
S'is_deleted'
p7
I00
sS'short_name'
p8
VSVTCLA
p9
sS'duid'
p10
V6350927368470663379
p11
sS'last_modification_timestamp'
p12
I1501839626021
sS'altitude'
p13
I2147483646
sS'number'
p14
I60726
sS'longitude'
p15
I-31039128
sS'long_name'
p16
VColbert Ave (No 70)
p17
sS'latitude'
p18
I189540432
sS'foo'
p19
I0
sbag1
(g2
g3
Ntp20
Rp21
(dp22
g7
I00
sg8
VTHTNMA
p23
sg10
V6350927368470663381
p24
sg12
I1501839626021
sg13
I2147483646
sg14
I60728
sg15
I-31028580
sg16
VJanesboro (13 Marian Ave)
p25
sg18
I189550296
sg19
I0
sbag1
(g2
g3
Ntp26
Rp27
(dp28
g7
I00
sg8
VOPMGWY
p29
sg10
V6350927368470663373
p30
sg12
I1501839626021
sg13
I2147483646
sg14
I60720
sg15
I-31021272
sg16
VCarew Pk (Opp No 23 Maigue Way)
p31
sg18
I189518544
sg19
I0
sbag1
(g2
g3
Ntp32
Rp33
(dp34
g7
I00
sg8
VJNCSYN
p35
sg10
V6350927368470663377
p36
sg12
I1501839626021
sg13
I2147483646
sg14
I60724
sg15
I-31011372
sg16
VCollins Ave (Jctn with Synge Rd)
p37
sg18
I189530064
sg19
I0
sbag1
(g2
g3
Ntp38
Rp39
(dp40
g7
I00
sg8
VTHEGOD
p41
sg10
V6350927368470663370
p42
sg12
I1501839626021
sg13
I2147483646
sg14
I60717
sg15
I-31032432
sg16
VJanesboro (No 38 O Donoghue Ave)
p43
sg18
I189537984
sg19
I0
sbag1
(g2
g3
Ntp44
Rp45
(dp46
g7
I00
sg8
VJCNSWD
p47
sg10
V6350927368470663372
p48
sg12
I1501839626021
sg13
I2147483646
sg14
I60719
sg15
I-31029408
sg16
VCarew Pk (Star Court)
p49
sg18
I189520164
sg19
I0
sbag1
(g2
g3
Ntp50
Rp51
(dp52
g7
I00
sg8
VTWNMAV
p53
sg10
V6350927368470663368
p54
sg12
I1501839626021
sg13
I2147483646
sg14
I60715
sg15
I-31028544
sg16
VJanesboro (No 20 Marian Ave)
p55
sg18
I189550188
sg19
I0
sbag1
(g2
g3
Ntp56
Rp57
(dp58
g7
I00
sg8
VTHONCL
p59
sg10
V6350927368470663369
p60
sg12
I1501839626021
sg13
I2147483646
sg14
I60716
sg15
I-31035312
sg16
VJanesboro (No 31 Colbert Ave)
p61
sg18
I189544572
sg19
I0
sbag1
(g2
g3
Ntp62
Rp63
(dp64
g7
I00
sg8
VOPSTAB
p65
sg10
V6350927368470663403
p66
sg12
I1501839626022
sg13
I2147483646
sg14
I60751
sg15
I-31122216
sg16
VBallinacurra (Opp St Aubin)
p67
sg18
I189521172
sg19
I0
sbag1
(g2
g3
Ntp68
Rp69
(dp70
g7
I00
sg8
VCRSHCN
p71
sg10
V6350927368470663402
p72
sg12
I1501839626022
sg13
I2147483646
sg14
I60750
sg15
I-31133232
sg16
VSt Nessans Rd (Crescent SC)
p73
sg18
I189510336
sg19
I0
sbag1
(g2
g3
Ntp74
Rp75
(dp76
g7
I00
sg8
VXTRAVS
p77
sg10
V6350927368470663401
p78
sg12
I1501839626022
sg13
I2147483646
sg14
I60749
sg15
I-31145688
sg16
VSt Nessans Rd (Xtra Vision)
p79
sg18
I189504360
sg19
I0
sbag1
(g2
g3
Ntp80
Rp81
(dp82
g7
I00
sg8
VRGLHSP
p83
sg10
V6350927368470663400
p84
sg12
I1501839626022
sg13
I2147483646
sg14
I60748
sg15
I-31159008
sg16
VSt Nessans Rd (University Hospital)
p85
sg18
I189486756
sg19
I0
sbag1
(g2
g3
Ntp86
Rp87
(dp88
g7
I00
sg8
VRHNTRF
p89
sg10
V6350927368470663399
p90
sg12
I1501839626021
sg13
I2147483646
sg14
I60747
sg15
I-31173336
sg16
VSt Nessans Rd ( Meadowvale Junction)
p91
sg18
I189473724
sg19
I0
sbag1
(g2
g3
Ntp92
Rp93
(dp94
g7
I00
sg8
VRHNCHR
p95
sg10
V6350927368470663398
p96
sg12
I1501839626021
sg13
I2147483646
sg14
I60746
sg15
I-31182192
sg16
VRaheen (Opposite St Nessans Church)
p97
sg18
I189464976
sg19
I0
sbag1
(g2
g3
Ntp98
Rp99
(dp100
g7
I00
sg8
VTHRCLB
p101
sg10
V6350927368470663380
p102
sg12
I1501839626021
sg13
I2147483646
sg14
I60727
sg15
I-31035312
sg16
VColbert Ave (No 30)
p103
sg18
I189544896
sg19
I0
sbag1
(g2
g3
Ntp104
Rp105
(dp106
g7
I00
sg8
VHMLTHS
p107
sg10
V6350927368470663383
p108
sg12
I1501839626021
sg13
I2147483646
sg14
I60730
sg15
I-31025592
sg16
VRoxboro Rd (Hamilton House)
p109
sg18
I189566532
sg19
I0
sbag1
(g2
g3
Ntp110
Rp111
(dp112
g7
I00
sg8
VONEFTY
p113
sg10
V6350927368470663323
p114
sg12
I1501839626019
sg13
I2147483646
sg14
I60670
sg15
I-30951936
sg16
VWestbury Est (No. 150 Clonard)
p115
sg18
I189666252
sg19
I0
sbag1
(g2
g3
Ntp116
Rp117
(dp118
g7
I00
sg8
VOPPNCR
p119
sg10
V6350927368470663451
p120
sg12
I1501839626023
sg13
I2147483646
sg14
I60800
sg15
I-31090212
sg16
VPunches Cross (Opp Punches Hotel)
p121
sg18
I189543384
sg19
I0
sbag1
(g2
g3
Ntp122
Rp123
(dp124
g7
I00
sg8
VJNCFRG
p125
sg10
V6350927368470663444
p126
sg12
I1501839626023
sg13
I2147483646
sg14
I60793
sg15
I-31173264
sg16
VChurch Rd (Forge Estate)
p127
sg18
I189465120
sg19
I0
sbag1
(g2
g3
Ntp128
Rp129
(dp130
g7
I00
sg8
VOPARDG
p131
sg10
V6350927368470663452
p132
sg12
I1501839626023
sg13
I2147483646
sg14
I60801
sg15
I-31087800
sg16
VO Connell Ave (Opp Ardglass)
p133
sg18
I189551916
sg19
I0
sbag1
(g2
g3
Ntp134
Rp135
(dp136
g7
I00
sg8
VEGLPHT
p137
sg10
V6350927368470663453
p138
sg12
I1501839626023
sg13
I2147483646
sg14
I60802
sg15
I-31083444
sg16
VO Connell Ave (Egleston Photography)
p139
sg18
I189561744
sg19
I0
sbag1
(g2
g3
Ntp140
Rp141
(dp142
g7
I00
sg8
VWTCHSE
p143
sg10
V6350927368470663524
p144
sg12
I1501839626027
sg13
I2147483646
sg14
I60873
sg15
I-31101768
sg16
VMoyross Main Rd (Watchhouse Cr Library)
p145
sg18
I189645048
sg19
I0
sbag1
(g2
g3
Ntp146
Rp147
(dp148
g7
I00
sg8
VHIBRIN
p149
sg10
V6350927368470663455
p150
sg12
I1501839626023
sg13
I2147483646
sg14
I60804
sg15
I-31071276
sg16
VHenry St (Garda Station)
p151
sg18
I189583020
sg19
I0
sbag1
(g2
g3
Ntp152
Rp153
(dp154
g7
I00
sg8
VRCKCRP
p155
sg10
V6350927368470663523
p156
sg12
I1501839626027
sg13
I2147483646
sg14
I60872
sg15
I-31114260
sg16
VMoyross Main Rd (The Rock)
p157
sg18
I189649404
sg19
I0
sbag1
(g2
g3
Ntp158
Rp159
(dp160
g7
I00
sg8
VMYCMCN
p161
sg10
V6350927368470663522
p162
sg12
I1501839626027
sg13
I2147483646
sg14
I60871
sg15
I-31132728
sg16
VMoyross (Community Centre)
p163
sg18
I189653328
sg19
I0
sbag1
(g2
g3
Ntp164
Rp165
(dp166
g7
I00
sg8
VOPCRVL
p167
sg10
V6350927368470663521
p168
sg12
I1501839626027
sg13
I2147483646
sg14
I60870
sg15
I-31141152
sg16
VCraeval Pk (Opp Turning Circle)
p169
sg18
I189655092
sg19
I0
sbag1
(g2
g3
Ntp170
Rp171
(dp172
g7
I00
sg8
VPNVGRD
p173
sg10
V6350927368470663520
p174
sg12
I1501839626027
sg13
I2147483646
sg14
I60869
sg15
I-31154652
sg16
VPineview Gardens
p175
sg18
I189657936
sg19
I0
sbag1
(g2
g3
Ntp176
Rp177
(dp178
g7
I00
sg8
VJNRVDR
p179
sg10
V6350927368470663319
p180
sg12
I1501839626019
sg13
I2147483646
sg14
I60666
sg15
I-30991392
sg16
VShannon Banks Est (Jnct Riverside Drive)
p181
sg18
I189663516
sg19
I0
sbag1
(g2
g3
Ntp182
Rp183
(dp184
g7
I00
sg8
VSALESC
p185
sg10
V6350927368470666875
p186
sg12
I1501839626152
sg13
I2147483646
sg14
I33700
sg15
I-31092120
sg16
VSalesians College (Limerick)
p187
sg18
I189595692
sg19
I0
sbag1
(g2
g3
Ntp188
Rp189
(dp190
g7
I00
sg8
VARDCLH
p191
sg10
V6350927368470665821
p192
sg12
I1501839626119
sg13
I2147483646
sg14
I33381
sg15
I-30997511
sg16
VArdnacrusha (Lakyle Heights)
p193
sg18
I189750204
sg19
I0
sbag1
(g2
g3
Ntp194
Rp195
(dp196
g7
I00
sg8
VARDCOL
p197
sg10
V6350927368470665820
p198
sg12
I1501839626119
sg13
I2147483646
sg14
I33380
sg15
I-30998483
sg16
VArdnacrusha (Opp Lakyle Heights)
p199
sg18
I189749808
sg19
I0
sbag1
(g2
g3
Ntp200
Rp201
(dp202
g7
I00
sg8
VHYDERD
p203
sg10
V6350927368470666986
p204
sg12
I1501839626154
sg13
I2147483646
sg14
I60874
sg15
I-31048982
sg16
VHyde Rd Limerick (No 167)
p205
sg18
I189559035
sg19
I0
sbag1
(g2
g3
Ntp206
Rp207
(dp208
g7
I00
sg8
VASTWNE
p209
sg10
V6350927368470663333
p210
sg12
I1501839626020
sg13
I2147483646
sg14
I60680
sg15
I-31028940
sg16
VAthlunkard St (No 29)
p211
sg18
I189608868
sg19
I0
sbag1
(g2
g3
Ntp212
Rp213
(dp214
g7
I00
sg8
VMLLWST
p215
sg10
V6350927368470666877
p216
sg12
I1501839626152
sg13
I2147483646
sg14
I33702
sg15
I-31066164
sg16
VLimerick (Mallow St)
p217
sg18
I189575136
sg19
I0
sbag1
(g2
g3
Ntp218
Rp219
(dp220
g7
I00
sg8
VMOYLSH
p221
sg10
V6350927368470666876
p222
sg12
I1501839626152
sg13
I2147483646
sg14
I33701
sg15
I-31130172
sg16
VMoylish
p223
sg18
I189628848
sg19
I0
sbag1
(g2
g3
Ntp224
Rp225
(dp226
g7
I00
sg8
VGSCNRS
p227
sg10
V6350927368470663332
p228
sg12
I1501839626020
sg13
I2147483646
sg14
I60679
sg15
I-31018968
sg16
VCorbally Rd (Goosers Corner Restuarant)
p229
sg18
I189616248
sg19
I0
sbag1
(g2
g3
Ntp230
Rp231
(dp232
g7
I00
sg8
VOPSTMY
p233
sg10
V6350927368470663334
p234
sg12
I1501839626020
sg13
I2147483646
sg14
I60681
sg15
I-31042872
sg16
VAthlunkard St (Opp St Marys Cathedral)
p235
sg18
I189603900
sg19
I0
sbag1
(g2
g3
Ntp236
Rp237
(dp238
g7
I00
sg8
VBLYCNH
p239
sg10
V6350927368470665822
p240
sg12
I1501839626119
sg13
I2147483646
sg14
I33382
sg15
I-31137911
sg16
VBallycannon (Opp Ballycannon Heights)
p241
sg18
I189730476
sg19
I0
sbag1
(g2
g3
Ntp242
Rp243
(dp244
g7
I00
sg8
VCLTYSC
p245
sg10
V6350927368470667632
p246
sg12
I1501839626188
sg13
I2147483646
sg14
I60931
sg15
I-30795721
sg16
VCastletroy Shopping Centre
p247
sg18
I189599962
sg19
I0
sbag1
(g2
g3
Ntp248
Rp249
(dp250
g7
I00
sg8
VSPSGNS
p251
sg10
V6350927368470667639
p252
sg12
I1501839626188
sg13
I2147483646
sg14
I60977
sg15
I-30848342
sg16
VGolf Links Rd (Kilbane Estate)
p253
sg18
I189582919
sg19
I0
sbag1
(g2
g3
Ntp254
Rp255
(dp256
g7
I00
sg8
VOPTRLG
p257
sg10
V6350927368470667403
p258
sg12
I1501839626184
sg13
I2147483646
sg14
I60781
sg15
I-31173462
sg16
VSt Nessans Rd (Avonmore Rd Junction)
p259
sg18
I189472870
sg19
I0
sbag1
(g2
g3
Ntp260
Rp261
(dp262
g7
I00
sg8
VLMRKDP
p263
sg10
V6350927368470667412
p264
sg12
I1501839626184
sg13
I2147483646
sg14
I4
sg15
I-31012444
sg16
VLimerick Depot (Roxboro Road)
p265
sg18
I189557130
sg19
I0
sbag1
(g2
g3
Ntp266
Rp267
(dp268
g7
I00
sg8
VOSCHRD
p269
sg10
V6350927368470667635
p270
sg12
I1501839626188
sg13
I2147483646
sg14
I60973
sg15
I-30794022
sg16
VSchoolhouse Road (Monaleen GAA)
p271
sg18
I189564880
sg19
I0
sbag1
(g2
g3
Ntp272
Rp273
(dp274
g7
I00
sg8
VMONLNS
p275
sg10
V6350927368470667634
p276
sg12
I1501839626188
sg13
I2147483646
sg14
I60972
sg15
I-30780126
sg16
VMonaleen (Opp Hazel Hall)
p277
sg18
I189581147
sg19
I0
sbag1
(g2
g3
Ntp278
Rp279
(dp280
g7
I00
sg8
VBRKFEX
p281
sg10
V6350927368470667284
p282
sg12
I1501839626164
sg13
I2147483646
sg14
I33289
sg15
I-30868322
sg16
VBrookfield (Expressway stop)
p283
sg18
I189565481
sg19
I0
sbag1
(g2
g3
Ntp284
Rp285
(dp286
g7
I00
sg8
VBRRYSP
p287
sg10
V6350927368470667375
p288
sg12
I1501839626183
sg13
I2147483646
sg14
I53530
sg15
I-30787776
sg16
VBarry's Shop
p289
sg18
I189804312
sg19
I0
sbag1
(g2
g3
Ntp290
Rp291
(dp292
g7
I00
sg8
VOCNLLK
p293
sg10
V6350927368470667376
p294
sg12
I1501839626183
sg13
I2147483646
sg14
I53531
sg15
I-31086792
sg16
VO'Connell Ave (Limerick)
p295
sg18
I189554076
sg19
I0
sbag1
(g2
g3
Ntp296
Rp297
(dp298
g7
I00
sg8
VLKSPGT
p299
sg10
V6350927368470667399
p300
sg12
I1501839626184
sg13
I2147483646
sg14
I60251
sg15
I-31064901
sg16
VLimerick (Henry St)
p301
sg18
I189588640
sg19
I0
sbag1
(g2
g3
Ntp302
Rp303
(dp304
g7
I00
sg8
VHNNSFR
p305
sg10
V6350927368470663567
p306
sg12
I1501839626028
sg13
I2147483646
sg14
I60918
sg15
I-31089276
sg16
VHennessy Ave (No 44)
p307
sg18
I189633852
sg19
I0
sbag1
(g2
g3
Ntp308
Rp309
(dp310
g7
I00
sg8
VOPEGHT
p311
sg10
V6350927368470663568
p312
sg12
I1501839626028
sg13
I2147483646
sg14
I60919
sg15
I-31093920
sg16
VO Callaghan Ave (Opp No 18)
p313
sg18
I189627192
sg19
I0
sbag1
(g2
g3
Ntp314
Rp315
(dp316
g7
I00
sg8
VTWNYFV
p317
sg10
V6350927368470663565
p318
sg12
I1501839626028
sg13
I2147483646
sg14
I60916
sg15
I-31089600
sg16
VO Callaghan Ave (No 25 Killeely Rd)
p319
sg18
I189634500
sg19
I0
sbag1
(g2
g3
Ntp320
Rp321
(dp322
g7
I00
sg8
VEGHTKL
p323
sg10
V6350927368470663564
p324
sg12
I1501839626028
sg13
I2147483646
sg14
I60915
sg15
I-31093848
sg16
VO Callaghan Ave (No 18 Killeely Rd)
p325
sg18
I189627480
sg19
I0
sbag1
(g2
g3
Ntp326
Rp327
(dp328
g7
I00
sg8
VOPUNCR
p329
sg10
V6350927368470663363
p330
sg12
I1501839626020
sg13
I2147483646
sg14
I60710
sg15
I-31101552
sg16
VEnnis Rd (Moravan Hse Union Cross)
p331
sg18
I189601272
sg19
I0
sbag1
(g2
g3
Ntp332
Rp333
(dp334
g7
I00
sg8
VJHNYSH
p335
sg10
V6350927368470663563
p336
sg12
I1501839626028
sg13
I2147483646
sg14
I60914
sg15
I-31096656
sg16
VO Callaghan Ave (Johnseys Shop)
p337
sg18
I189622764
sg19
I0
sbag1
(g2
g3
Ntp338
Rp339
(dp340
g7
I00
sg8
VOPPCBS
p341
sg10
V6350927368470663365
p342
sg12
I1501839626021
sg13
I2147483646
sg14
I60712
sg15
I-31032144
sg16
VLower Roxboro Rd (Opp CBS School)
p343
sg18
I189574812
sg19
I0
sbag1
(g2
g3
Ntp344
Rp345
(dp346
g7
I00
sg8
VSPRDPH
p347
sg10
V6350927368470663364
p348
sg12
I1501839626021
sg13
I2147483646
sg14
I60711
sg15
I-31050252
sg16
VWilliam St (Superdrug Pharmacy)
p349
sg18
I189587430
sg19
I0
sbag1
(g2
g3
Ntp350
Rp351
(dp352
g7
I00
sg8
VTHRTEN
p353
sg10
V6350927368470663367
p354
sg12
I1501839626021
sg13
I2147483646
sg14
I60714
sg15
I-31018968
sg16
VRoxboro Rd (No 13)
p355
sg18
I189551448
sg19
I0
sbag1
(g2
g3
Ntp356
Rp357
(dp358
g7
I00
sg8
VSTANHS
p359
sg10
V6350927368470663366
p360
sg12
I1501839626021
sg13
I2147483646
sg14
I60713
sg15
I-31025196
sg16
VRoxboro Rd (St Annes Day Hosp)
p361
sg18
I189566640
sg19
I0
sbag1
(g2
g3
Ntp362
Rp363
(dp364
g7
I00
sg8
VONFVTH
p365
sg10
V6350927368470663340
p366
sg12
I1501839626020
sg13
I2147483646
sg14
I60687
sg15
I-31126788
sg16
VCratloe Rd (153 Cratloe Rd)
p367
sg18
I189624564
sg19
I0
sbag1
(g2
g3
Ntp368
Rp369
(dp370
g7
I00
sg8
VBPTSCH
p371
sg10
V6350927368470663341
p372
sg12
I1501839626020
sg13
I2147483646
sg14
I60688
sg15
I-31152816
sg16
VOld Cratloe Rd (Baptist Church)
p373
sg18
I189633132
sg19
I0
sbag1
(g2
g3
Ntp374
Rp375
(dp376
g7
I00
sg8
VOPSHPR
p377
sg10
V6350927368470663338
p378
sg12
I1501839626020
sg13
I2147483646
sg14
I60685
sg15
I-31105152
sg16
VShelbourne Rd (Opp Shelbourne Pk)
p379
sg18
I189613764
sg19
I0
sbag1
(g2
g3
Ntp380
Rp381
(dp382
g7
I00
sg8
VTHMDPK
p383
sg10
V6350927368470663339
p384
sg12
I1501839626020
sg13
I2147483646
sg14
I60686
sg15
I-31111632
sg16
VCratloe Rd (Opp Thomond Park)
p385
sg18
I189623736
sg19
I0
sbag1
(g2
g3
Ntp386
Rp387
(dp388
g7
I00
sg8
VSTRDHT
p389
sg10
V6350927368470663336
p390
sg12
I1501839626020
sg13
I2147483646
sg14
I60683
sg15
I-31074336
sg16
VEnnis Rd (Strand Hotel)
p391
sg18
I189598572
sg19
I0
sbag1
(g2
g3
Ntp392
Rp393
(dp394
g7
I00
sg8
VSTCMHS
p395
sg10
V6350927368470663337
p396
sg12
I1501839626020
sg13
I2147483646
sg14
I60684
sg15
I-31104684
sg16
VShelbourne Rd (St Camillus Hosp)
p397
sg18
I189602892
sg19
I0
sbag1
(g2
g3
Ntp398
Rp399
(dp400
g7
I00
sg8
VONTWTW
p401
sg10
V6350927368470663534
p402
sg12
I1501839626027
sg13
I2147483646
sg14
I60883
sg15
I-31061952
sg16
VSt Marys Pk (Outside No 122 St Itas St)
p403
sg18
I189640188
sg19
I0
sbag1
(g2
g3
Ntp404
Rp405
(dp406
g7
I00
sg8
VEGTYTW
p407
sg10
V6350927368470663535
p408
sg12
I1501839626027
sg13
I2147483646
sg14
I60884
sg15
I-31059000
sg16
VSt Itas St (No 82)
p409
sg18
I189633420
sg19
I0
sbag1
(g2
g3
Ntp410
Rp411
(dp412
g7
I00
sg8
VDEVPRK
p413
sg10
V6350927368470663397
p414
sg12
I1501839626021
sg13
I2147483646
sg14
I60744
sg15
I-31091544
sg16
VSexton St Nth (De Valera Pk)
p415
sg18
I189620100
sg19
I0
sbag1
(g2
g3
Ntp416
Rp417
(dp418
g7
I00
sg8
VOPTRST
p419
sg10
V6350927368470663540
p420
sg12
I1501839626027
sg13
I2147483646
sg14
I60889
sg15
I-31061952
sg16
VClancy Strand (Opp Treaty Stone)
p421
sg18
I189611316
sg19
I0
sbag1
(g2
g3
Ntp422
Rp423
(dp424
g7
I00
sg8
VISRDST
p425
sg10
V6350927368470663539
p426
sg12
I1501839626027
sg13
I2147483646
sg14
I60888
sg15
I-31037976
sg16
VThe Island Rd (Island Rd Stores)
p427
sg18
I189610560
sg19
I0
sbag1
(g2
g3
Ntp428
Rp429
(dp430
g7
I00
sg8
VOLDDNS
p431
sg10
V6350927368470663528
p432
sg12
I1501839626027
sg13
I2147483646
sg14
I60877
sg15
I-31059936
sg16
VLiddy St (Old Dunnes Stores)
p433
sg18
I189593064
sg19
I0
sbag1
(g2
g3
Ntp434
Rp435
(dp436
g7
I00
sg8
VOPISLD
p437
sg10
V6350927368470663529
p438
sg12
I1501839626027
sg13
I2147483646
sg14
I60878
sg15
I-31038480
sg16
VThe Island Rd (Opp Island Rd Stores)
p439
sg18
I189610668
sg19
I0
sbag1
(g2
g3
Ntp440
Rp441
(dp442
g7
I00
sg8
VISCLYR
p443
sg10
V6350927368470663530
p444
sg12
I1501839626027
sg13
I2147483646
sg14
I60879
sg15
I-31047012
sg16
VThe Island Rd (Stores Coal Yard)
p445
sg18
I189619704
sg19
I0
sbag1
(g2
g3
Ntp446
Rp447
(dp448
g7
I00
sg8
VKNGCMC
p449
sg10
V6350927368470663531
p450
sg12
I1501839626027
sg13
I2147483646
sg14
I60880
sg15
I-31054644
sg16
VSt Itas St (Kings Island Creche)
p451
sg18
I189624492
sg19
I0
sbag1
(g2
g3
Ntp452
Rp453
(dp454
g7
I00
sg8
VSTITON
p455
sg10
V6350927368470663532
p456
sg12
I1501839626027
sg13
I2147483646
sg14
I60881
sg15
I-31057740
sg16
VSt Itas St (No 2)
p457
sg18
I189629532
sg19
I0
sbag1
(g2
g3
Ntp458
Rp459
(dp460
g7
I00
sg8
VTHTYFR
p461
sg10
V6350927368470663533
p462
sg12
I1501839626027
sg13
I2147483646
sg14
I60882
sg15
I-31059468
sg16
VSt Itas St (No 34)
p463
sg18
I189633600
sg19
I0
sbag1
(g2
g3
Ntp464
Rp465
(dp466
g7
I00
sg8
VOPTHPK
p467
sg10
V6350927368470663348
p468
sg12
I1501839626020
sg13
I2147483646
sg14
I60695
sg15
I-31113540
sg16
VCratloe Rd (Thomond Park)
p469
sg18
I189624240
sg19
I0
sbag1
(g2
g3
Ntp470
Rp471
(dp472
g7
I00
sg8
VGLRFHW
p473
sg10
V6350927368470667637
p474
sg12
I1501839626188
sg13
I2147483646
sg14
I60975
sg15
I-30833896
sg16
VGolf Links Rd (Fox Hollow)
p475
sg18
I189555934
sg19
I0
sbag1
(g2
g3
Ntp476
Rp477
(dp478
g7
I00
sg8
VPNYLPS
p479
sg10
V6350927368470667638
p480
sg12
I1501839626188
sg13
I2147483646
sg14
I60976
sg15
I-31000777
sg16
VPennywell (Limerick Paint Supplies)
p481
sg18
I189592679
sg19
I0
sbag1
(g2
g3
Ntp482
Rp483
(dp484
g7
I00
sg8
VTWNOKS
p485
sg10
V6350927368470667626
p486
sg12
I1501839626188
sg13
I2147483646
sg14
I60863
sg15
I-30967740
sg16
VClare St (Twin Oaks B&B)
p487
sg18
I189591015
sg19
I0
sbag1
(g2
g3
Ntp488
Rp489
(dp490
g7
I00
sg8
VSTPBNS
p491
sg10
V6350927368470667636
p492
sg12
I1501839626188
sg13
I2147483646
sg14
I60974
sg15
I-30820118
sg16
VSchoolhouse Rd (Kylemore)
p493
sg18
I189557788
sg19
I0
sbag1
(g2
g3
Ntp494
Rp495
(dp496
g7
I00
sg8
VSLLYPR
p497
sg10
V6350927368470667624
p498
sg12
I1501839626188
sg13
I2147483646
sg14
I60861
sg15
I-31022064
sg16
VNew Rd (S Coffee)
p499
sg18
I189589863
sg19
I0
sbag1
(g2
g3
Ntp500
Rp501
(dp502
g7
I00
sg8
VFRKHGN
p503
sg10
V6350927368470667627
p504
sg12
I1501839626188
sg13
I2147483646
sg14
I60864
sg15
I-30971268
sg16
VDublin Rd (Frank Hogan Motors)
p505
sg18
I189591267
sg19
I0
sbag1
(g2
g3
Ntp506
Rp507
(dp508
g7
I00
sg8
VOPSWDR
p509
sg10
V6350927368470667630
p510
sg12
I1501839626188
sg13
I2147483646
sg14
I60911
sg15
I-31027385
sg16
VCarew Park (Opp Swallow Drive)
p511
sg18
I189524311
sg19
I0
sbag1
(g2
g3
Ntp512
Rp513
(dp514
g7
I00
sg8
VPNNYWL
p515
sg10
V6350927368470667625
p516
sg12
I1501839626188
sg13
I2147483646
sg14
I60862
sg15
I-31007689
sg16
VPennywell Rd (Opp Laundrette)
p517
sg18
I189591333
sg19
I0
sbag1
(g2
g3
Ntp518
Rp519
(dp520
g7
I00
sg8
VBLCFTS
p521
sg10
V6350927368470667628
p522
sg12
I1501839626188
sg13
I2147483646
sg14
I60909
sg15
I-31118591
sg16
VBallycummin (The Forts)
p523
sg18
I189459147
sg19
I0
sbag1
(g2
g3
Ntp524
Rp525
(dp526
g7
I00
sg8
VMYDLPK
p527
sg10
V6350927368470667631
p528
sg12
I1501839626188
sg13
I2147483646
sg14
I60917
sg15
I-31104504
sg16
VMoyross (Dalgaish Park)
p529
sg18
I189644623
sg19
I0
sbag1
(g2
g3
Ntp530
Rp531
(dp532
g7
I00
sg8
VCRIEST
p533
sg10
V6350927368470666460
p534
sg12
I1501839626140
sg13
I2147483646
sg14
I60676
sg15
I-31001615
sg16
VCorbally Rd (Irish Estates)
p535
sg18
I189649908
sg19
I0
sbag1
(g2
g3
Ntp536
Rp537
(dp538
g7
I00
sg8
VBLRDFO
p539
sg10
V6350927368470667614
p540
sg12
I1501839626188
sg13
I2147483646
sg14
I60707
sg15
I-31124939
sg16
VBallinacurra Road (At Flyover)
p541
sg18
I189518263
sg19
I0
sbag1
(g2
g3
Ntp542
Rp543
(dp544
g7
I00
sg8
VRHCHRN
p545
sg10
V6350927368470667615
p546
sg12
I1501839626188
sg13
I2147483646
sg14
I60782
sg15
I-31181785
sg16
VRaheen (St Nessans Church)
p547
sg18
I189464248
sg19
I0
sbag1
(g2
g3
Ntp548
Rp549
(dp550
g7
I00
sg8
VFRRRBE
p551
sg10
V6350927368470667610
p552
sg12
I1501839626188
sg13
I2147483646
sg14
I31169
sg15
I-31172216
sg16
VFr Russell Rd (Rosebrook Estate)
p553
sg18
I189496800
sg19
I0
sbag1
(g2
g3
Ntp554
Rp555
(dp556
g7
I00
sg8
VSTNNSC
p557
sg10
V6350927368470667608
p558
sg12
I1501839626188
sg13
I2147483646
sg14
I31166
sg15
I-31205484
sg16
VSt Nessans National School
p559
sg18
I189473270
sg19
I0
sbag1
(g2
g3
Ntp560
Rp561
(dp562
g7
I00
sg8
VLMRIT
p563
sg10
V6350927368470661349
p564
sg12
I1501839625969
sg13
I2147483646
sg14
I63708
sg15
I-31137840
sg16
VLimerick Institute of Technology
p565
sg18
I189627660
sg19
I0
sbag1
(g2
g3
Ntp566
Rp567
(dp568
g7
I00
sg8
VLIMAUG
p569
sg10
V6350927368470662833
p570
sg12
I1501839626003
sg13
I2147483646
sg14
I60556
sg15
I-31059143
sg16
VO Connell St (Augustinian Church)
p571
sg18
I189586512
sg19
I0
sbag1
(g2
g3
Ntp572
Rp573
(dp574
g7
I00
sg8
VKNCKDN
p575
sg10
V6350927368470662290
p576
sg12
I1501839625979
sg13
I2147483646
sg14
I33842
sg15
I-30973283
sg16
VKnockdonagh Cross (northbound)
p577
sg18
I189854856
sg19
I0
sbag1
(g2
g3
Ntp578
Rp579
(dp580
g7
I00
sg8
VGRNHL
p581
sg10
V6350927368470659886
p582
sg12
I1501839625936
sg13
I2147483646
sg14
I29563
sg15
I-31216860
sg16
VGreenhills
p583
sg18
I189624744
sg19
I0
sbag1
(g2
g3
Ntp584
Rp585
(dp586
g7
I00
sg8
VCHRKNG
p587
sg10
V6350927368470663344
p588
sg12
I1501839626020
sg13
I2147483646
sg14
I60691
sg15
I-31177764
sg16
VCaherdavin (Christ the King Church)
p589
sg18
I189628596
sg19
I0
sbag1
(g2
g3
Ntp590
Rp591
(dp592
g7
I00
sg8
VJNCDRV
p593
sg10
V6350927368470663345
p594
sg12
I1501839626020
sg13
I2147483646
sg14
I60692
sg15
I-31189392
sg16
VCaherdavin (Jctn of Derravaragh Rd)
p595
sg18
I189619056
sg19
I0
sbag1
(g2
g3
Ntp596
Rp597
(dp598
g7
I00
sg8
VCLNCYL
p599
sg10
V6350927368470661240
p600
sg12
I1501839625968
sg13
I2147483646
sg14
I57776
sg15
I-30943871
sg16
VClancy's (Limerick)
p601
sg18
I189550188
sg19
I0
sbag1
(g2
g3
Ntp602
Rp603
(dp604
g7
I00
sg8
VFOODCN
p605
sg10
V6350927368470661241
p606
sg12
I1501839625968
sg13
I2147483646
sg14
I59820
sg15
I-31166928
sg16
VFood Centre
p607
sg18
I189459792
sg19
I0
sbag1
(g2
g3
Ntp608
Rp609
(dp610
g7
I00
sg8
VBRNGCP
p611
sg10
V6350927368470664180
p612
sg12
I1501839626055
sg13
I2147483646
sg14
I60939
sg15
I-31073688
sg16
VBarrington St (Car Park)
p613
sg18
I189570240
sg19
I0
sbag1
(g2
g3
Ntp614
Rp615
(dp616
g7
I00
sg8
VOPSXFV
p617
sg10
V6350927368470663387
p618
sg12
I1501839626021
sg13
I2147483646
sg14
I60734
sg15
I-31076820
sg16
VHigh Rd (Thomondgate (Opp No 65)
p619
sg18
I189615492
sg19
I0
sbag1
(g2
g3
Ntp620
Rp621
(dp622
g7
I00
sg8
VUNCRSS
p623
sg10
V6350927368470663353
p624
sg12
I1501839626020
sg13
I2147483646
sg14
I60700
sg15
I-31106700
sg16
VEnnis Rd (Union Cross)
p625
sg18
I189600876
sg19
I0
sbag1
(g2
g3
Ntp626
Rp627
(dp628
g7
I00
sg8
VJFKSCH
p629
sg10
V6350927368470663354
p630
sg12
I1501839626020
sg13
I2147483646
sg14
I60701
sg15
I-31121604
sg16
VEnnis Rd (JFK School)
p631
sg18
I189600624
sg19
I0
sbag1
(g2
g3
Ntp632
Rp633
(dp634
g7
I00
sg8
VMLTHSE
p635
sg10
V6350927368470663314
p636
sg12
I1501839626019
sg13
I2147483646
sg14
I60661
sg15
I-31016844
sg16
VCorbally Rd (Milton House)
p637
sg18
I189626580
sg19
I0
sbag1
(g2
g3
Ntp638
Rp639
(dp640
g7
I00
sg8
VSTNCCH
p641
sg10
V6350927368470663325
p642
sg12
I1501839626020
sg13
I2147483646
sg14
I60672
sg15
I-30958308
sg16
VWestbury (St Nicholas Church)
p643
sg18
I189657144
sg19
I0
sbag1
(g2
g3
Ntp644
Rp645
(dp646
g7
I00
sg8
VOPTPFS
p647
sg10
V6350927368470663313
p648
sg12
I1501839626019
sg13
I2147483646
sg14
I60660
sg15
I-31019580
sg16
VCorbally Rd (Opp Topaz Station)
p649
sg18
I189615780
sg19
I0
sbag1
(g2
g3
Ntp650
Rp651
(dp652
g7
I00
sg8
VNOSXTN
p653
sg10
V6350927368470663312
p654
sg12
I1501839626019
sg13
I2147483646
sg14
I60559
sg15
I-31030092
sg16
VAthlunkard St (No 16)
p655
sg18
I189608976
sg19
I0
sbag1
(g2
g3
Ntp656
Rp657
(dp658
g7
I00
sg8
VFRRSHE
p659
sg10
V6350927368470663554
p660
sg12
I1501839626028
sg13
I2147483646
sg14
I60903
sg15
I-31200552
sg16
VFr Russell Rd (No 4 Russell House)
p661
sg18
I189491688
sg19
I0
sbag1
(g2
g3
Ntp662
Rp663
(dp664
g7
I00
sg8
VENTPVG
p665
sg10
V6350927368470663552
p666
sg12
I1501839626028
sg13
I2147483646
sg14
I60901
sg15
I-31154508
sg16
VPineview Gardens Entrance
p667
sg18
I189657792
sg19
I0
sbag1
(g2
g3
Ntp668
Rp669
(dp670
g7
I00
sg8
VMLRDJC
p671
sg10
V6350927368470663315
p672
sg12
I1501839626019
sg13
I2147483646
sg14
I60662
sg15
I-31012668
sg16
VCorbally Rd (Mill Rd Junction)
p673
sg18
I189637308
sg19
I0
sbag1
(g2
g3
Ntp674
Rp675
(dp676
g7
I00
sg8
VOPSNHG
p677
sg10
V6350927368470663576
p678
sg12
I1501839626028
sg13
I2147483646
sg14
I60927
sg15
I-30970512
sg16
VO Malley Pk (Opp 158 Sunny Hghts)
p679
sg18
I189532368
sg19
I0
sbag1
(g2
g3
Ntp680
Rp681
(dp682
g7
I00
sg8
VOPTHFR
p683
sg10
V6350927368470663558
p684
sg12
I1501839626028
sg13
I2147483646
sg14
I60907
sg15
I-31118760
sg16
VBallycummin (Opp No 7 The Forts)
p685
sg18
I189459360
sg19
I0
sbag1
(g2
g3
Ntp686
Rp687
(dp688
g7
I00
sg8
VCRMCBY
p689
sg10
V6350927368470663559
p690
sg12
I1501839626028
sg13
I2147483646
sg14
I60908
sg15
I-31116060
sg16
VDooradoyle Rd (Cormac Byrnes)
p691
sg18
I189475272
sg19
I0
sbag1
(g2
g3
Ntp692
Rp693
(dp694
g7
I00
sg8
VOPRTHM
p695
sg10
V6350927368470663557
p696
sg12
I1501839626028
sg13
I2147483646
sg14
I60906
sg15
I-31123944
sg16
VBallycummin (Opp No 26 Rathmore)
p697
sg18
I189451836
sg19
I0
sbag1
(g2
g3
Ntp698
Rp699
(dp700
g7
I00
sg8
VOPHLTC
p701
sg10
V6350927368470663581
p702
sg12
I1501839626028
sg13
I2147483646
sg14
I60932
sg15
I-31102812
sg16
VKileely Rd (Opp Health Centre)
p703
sg18
I189626544
sg19
I0
sbag1
(g2
g3
Ntp704
Rp705
(dp706
g7
I00
sg8
VOPRXGR
p707
sg10
V6350927368470663579
p708
sg12
I1501839626028
sg13
I2147483646
sg14
I60930
sg15
I-31016592
sg16
VRoxboro Rd (Opp Roxboro Garda Station)
p709
sg18
I189543564
sg19
I0
sbag1
(g2
g3
Ntp710
Rp711
(dp712
g7
I00
sg8
VVLLYVW
p713
sg10
V6350927368470663578
p714
sg12
I1501839626028
sg13
I2147483646
sg14
I60929
sg15
I-30986280
sg16
VO Malley Pk (Valley View)
p715
sg18
I189530604
sg19
I0
sbag1
(g2
g3
Ntp716
Rp717
(dp718
g7
I00
sg8
VOPMNVW
p719
sg10
V6350927368470663577
p720
sg12
I1501839626028
sg13
I2147483646
sg14
I60928
sg15
I-30977028
sg16
VO Malley Pk (Opp Mountain View Tce)
p721
sg18
I189532980
sg19
I0
sbag1
(g2
g3
Ntp722
Rp723
(dp724
g7
I00
sg8
VSGGTRD
p725
sg10
V6350927368470667623
p726
sg12
I1501839626188
sg13
I2147483646
sg14
I60813
sg15
I-31160516
sg16
VRaheen Ind Est (Kirby Engineering)
p727
sg18
I189445535
sg19
I0
sbag1
(g2
g3
Ntp728
Rp729
(dp730
g7
I00
sg8
VOPONCS
p731
sg10
V6350927368470667620
p732
sg12
I1501839626188
sg13
I2147483646
sg14
I60797
sg15
I-31122828
sg16
VMulcaire Rd (Opp No 1 Castle Pk)
p733
sg18
I189478335
sg19
I0
sbag1
(g2
g3
Ntp734
Rp735
(dp736
g7
I00
sg8
VOPPFRT
p737
sg10
V6350927368470667617
p738
sg12
I1501839626188
sg13
I2147483646
sg14
I60794
sg15
I-31149110
sg16
VBallycummin Rd (Opp Dry Cleaners)
p739
sg18
I189450578
sg19
I0
sbag1
(g2
g3
Ntp740
Rp741
(dp742
g7
I00
sg8
VSTNCHR
p743
sg10
V6350927368470667622
p744
sg12
I1501839626188
sg13
I2147483646
sg14
I60805
sg15
I-31145366
sg16
VAvonmore Rd (Opp Eircom Building)
p745
sg18
I189464524
sg19
I0
sbag1
(g2
g3
Ntp746
Rp747
(dp748
g7
I00
sg8
VRHNFDS
p749
sg10
V6350927368470667619
p750
sg12
I1501839626188
sg13
I2147483646
sg14
I60796
sg15
I-31134076
sg16
VMulcaire Rd (Raheen Food Store)
p751
sg18
I189473241
sg19
I0
sbag1
(g2
g3
Ntp752
Rp753
(dp754
g7
I00
sg8
VFORTFL
p755
sg10
V6350927368470667616
p756
sg12
I1501839626188
sg13
I2147483646
sg14
I60792
sg15
I-31149003
sg16
VBallycummin Rd (Opp Southland House)
p757
sg18
I189449503
sg19
I0
sbag1
(g2
g3
Ntp758
Rp759
(dp760
g7
I00
sg8
VBLCRTM
p761
sg10
V6350927368470667629
p762
sg12
I1501839626188
sg13
I2147483646
sg14
I60910
sg15
I-31124124
sg16
VBallycummin (Rathmore)
p763
sg18
I189451440
sg19
I0
sbag1
(g2
g3
Ntp764
Rp765
(dp766
g7
I00
sg8
VJNCOWN
p767
sg10
V6350927368470667618
p768
sg12
I1501839626188
sg13
I2147483646
sg14
I60795
sg15
I-31141872
sg16
VMulcaire Rd (Owenmore Drive)
p769
sg18
I189466455
sg19
I0
sbag1
(g2
g3
Ntp770
Rp771
(dp772
g7
I00
sg8
VCRESMN
p773
sg10
V6350927368470667621
p774
sg12
I1501839626188
sg13
I2147483646
sg14
I60803
sg15
I-31075344
sg16
VO Connell St Crescent (Tutorial College)
p775
sg18
I189571791
sg19
I0
sbag1
(g2
g3
Ntp776
Rp777
(dp778
g7
I00
sg8
VFRRORH
p779
sg10
V6350927368470667609
p780
sg12
I1501839626188
sg13
I2147483646
sg14
I31168
sg15
I-31201265
sg16
VFr Russell Road (Opp Russell House)
p781
sg18
I189491684
sg19
I0
sbag1
(g2
g3
Ntp782
Rp783
(dp784
g7
I00
sg8
VREHABR
p785
sg10
V6350927368470661239
p786
sg12
I1501839625968
sg13
I2147483646
sg14
I57775
sg15
I-31102596
sg16
VRehab (Raheen)
p787
sg18
I189470412
sg19
I0
sbag1
(g2
g3
Ntp788
Rp789
(dp790
g7
I00
sg8
VHLRSCS
p791
sg10
V6350927368470661125
p792
sg12
I1501839625964
sg13
I2147483646
sg14
I35107
sg15
I-30812796
sg16
VDublin Rd (Hurlers Pub)
p793
sg18
I189603324
sg19
I0
sbag1
(g2
g3
Ntp794
Rp795
(dp796
g7
I00
sg8
VLMKATQ
p797
sg10
V6350927368470661583
p798
sg12
I1501839625970
sg13
I2147483646
sg14
I60555
sg15
I-31054896
sg16
VLimerick (Arthur's Quay)
p799
sg18
I189595116
sg19
I0
sbag1
(g2
g3
Ntp800
Rp801
(dp802
g7
I00
sg8
VCNGCHS
p803
sg10
V6350927368470664196
p804
sg12
I1501839626055
sg13
I2147483646
sg14
I60957
sg15
I-31222800
sg16
VCoonagh Cross (Hill Side)
p805
sg18
I189626400
sg19
I0
sbag1
(g2
g3
Ntp806
Rp807
(dp808
g7
I00
sg8
VMNGRTP
p809
sg10
V6350927368470665003
p810
sg12
I1501839626086
sg13
I2147483646
sg14
I33546
sg15
I-31294260
sg16
VMungret (Opp St Oliver Plunket Church)
p811
sg18
I189488844
sg19
I0
sbag1
(g2
g3
Ntp812
Rp813
(dp814
g7
I00
sg8
VCLRNAB
p815
sg10
V6350927368470665004
p816
sg12
I1501839626086
sg13
I2147483646
sg14
I33547
sg15
I-31434984
sg16
VClarina (Barber Shop)
p817
sg18
I189476172
sg19
I0
sbag1
(g2
g3
Ntp818
Rp819
(dp820
g7
I00
sg8
V2MLINN
p821
sg10
V6350927368470664706
p822
sg12
I1501839626074
sg13
I2147483646
sg14
I33620
sg15
I-31317804
sg16
VEnnis Rd (Two Mile Inn)
p823
sg18
I189647604
sg19
I0
sbag1
(g2
g3
Ntp824
Rp825
(dp826
g7
I00
sg8
VERRADH
p827
sg10
V6350927368470664879
p828
sg12
I1501839626081
sg13
I2147483646
sg14
I33784
sg15
I-31363740
sg16
VEnnis Rd (Radisson Hotel)
p829
sg18
I189657396
sg19
I0
sbag1
(g2
g3
Ntp830
Rp831
(dp832
g7
I00
sg8
VEROTMI
p833
sg10
V6350927368470664880
p834
sg12
I1501839626081
sg13
I2147483646
sg14
I33785
sg15
I-31316904
sg16
VEnnis Road (Opp Two Mile Inn)
p835
sg18
I189648756
sg19
I0
sbag1
(g2
g3
Ntp836
Rp837
(dp838
g7
I00
sg8
VERORHT
p839
sg10
V6350927368470664848
p840
sg12
I1501839626080
sg13
I2147483646
sg14
I33663
sg15
I-31366188
sg16
VEnnis Rd (Opp Radisson Hotel)
p841
sg18
I189655812
sg19
I0
sbag1
(g2
g3
Ntp842
Rp843
(dp844
g7
I00
sg8
VCBOPSB
p845
sg10
V6350927368470663327
p846
sg12
I1501839626020
sg13
I2147483646
sg14
I60674
sg15
I-30984624
sg16
VCorbally Rd (Opp Shannon Banks Est)
p847
sg18
I189659160
sg19
I0
sbag1
(g2
g3
Ntp848
Rp849
(dp850
g7
I00
sg8
VOPTNVC
p851
sg10
V6350927368470663326
p852
sg12
I1501839626020
sg13
I2147483646
sg14
I60673
sg15
I-30970260
sg16
VWestbury Est (Opp No 10 Vernon Cres)
p853
sg18
I189661284
sg19
I0
sbag1
(g2
g3
Ntp854
Rp855
(dp856
g7
I00
sg8
VBKWTOB
p857
sg10
V6350927368470665812
p858
sg12
I1501839626118
sg13
I2147483646
sg14
I33327
sg15
I-30969431
sg16
VBlackwater Cross (Opp Barrys Shop)
p859
sg18
I189755352
sg19
I0
sbag1
(g2
g3
Ntp860
Rp861
(dp862
g7
I00
sg8
VOPCRUN
p863
sg10
V6350927368470663389
p864
sg12
I1501839626021
sg13
I2147483646
sg14
I60736
sg15
I-31108284
sg16
VBallynanty Rd (Opp Credit Union)
p865
sg18
I189632052
sg19
I0
sbag1
(g2
g3
Ntp866
Rp867
(dp868
g7
I00
sg8
VBCNNN
p869
sg10
V6350927368470660857
p870
sg12
I1501839625957
sg13
I2147483646
sg14
I33200
sg15
I-31152492
sg16
VBallycannon (Meelick Tavern)
p871
sg18
I189723996
sg19
I0
sbag1
(g2
g3
Ntp872
Rp873
(dp874
g7
I00
sg8
VCLRNA
p875
sg10
V6350927368470660864
p876
sg12
I1501839625957
sg13
I2147483646
sg14
I33209
sg15
I-31430700
sg16
VClarina (Filling Station)
p877
sg18
I189476676
sg19
I0
sbag1
(g2
g3
Ntp878
Rp879
(dp880
g7
I00
sg8
VLRKNSX
p881
sg10
V6350927368470660858
p882
sg12
I1501839625957
sg13
I2147483646
sg14
I33201
sg15
I-30972708
sg16
VLarkins Cross (Post Box)
p883
sg18
I189683388
sg19
I0
sbag1
(g2
g3
Ntp884
Rp885
(dp886
g7
I00
sg8
VPRTNS
p887
sg10
V6350927368470660859
p888
sg12
I1501839625957
sg13
I2147483646
sg14
I33202
sg15
I-31010256
sg16
VParteen (Bishop Murphy Park)
p889
sg18
I189709488
sg19
I0
sbag1
(g2
g3
Ntp890
Rp891
(dp892
g7
I00
sg8
VCNNRSX
p893
sg10
V6350927368470660860
p894
sg12
I1501839625957
sg13
I2147483646
sg14
I33203
sg15
I-30963492
sg16
VConnors Cross (Filling Station)
p895
sg18
I189720864
sg19
I0
sbag1
(g2
g3
Ntp896
Rp897
(dp898
g7
I00
sg8
VBLKWTX
p899
sg10
V6350927368470660861
p900
sg12
I1501839625957
sg13
I2147483646
sg14
I33205
sg15
I-30970116
sg16
VBlackwater Cross (Barrys Shop)
p901
sg18
I189755424
sg19
I0
sbag1
(g2
g3
Ntp902
Rp903
(dp904
g7
I00
sg8
VARDNCR
p905
sg10
V6350927368470660862
p906
sg12
I1501839625957
sg13
I2147483646
sg14
I33206
sg15
I-31027320
sg16
VArdnacrusha (ESB Station Car Park)
p907
sg18
I189745020
sg19
I0
sbag1
(g2
g3
Ntp908
Rp909
(dp910
g7
I00
sg8
VMNGRT
p911
sg10
V6350927368470660863
p912
sg12
I1501839625957
sg13
I2147483646
sg14
I33208
sg15
I-31295376
sg16
VMungret (St Oliver Plunket Church)
p913
sg18
I189488412
sg19
I0
sbag1
(g2
g3
Ntp914
Rp915
(dp916
g7
I00
sg8
VCLAVGL
p917
sg10
V6350927368470663572
p918
sg12
I1501839626028
sg13
I2147483646
sg14
I60923
sg15
I-31006440
sg16
VCollins Ave (Olympic Arms Galvone)
p919
sg18
I189527580
sg19
I0
sbag1
(g2
g3
Ntp920
Rp921
(dp922
g7
I00
sg8
VSTHHLT
p923
sg10
V6350927368470663573
p924
sg12
I1501839626028
sg13
I2147483646
sg14
I60924
sg15
I-30994020
sg16
VO Malley Pk (Southill Health Centre)
p925
sg18
I189523512
sg19
I0
sbag1
(g2
g3
Ntp926
Rp927
(dp928
g7
I00
sg8
VCSTOKS
p929
sg10
V6350927368470663574
p930
sg12
I1501839626028
sg13
I2147483646
sg14
I60925
sg15
I-30982356
sg16
VO Malley Pk (Castle Oaks View)
p931
sg18
I189524700
sg19
I0
sbag1
(g2
g3
Ntp932
Rp933
(dp934
g7
I00
sg8
VTHNEON
p935
sg10
V6350927368470663575
p936
sg12
I1501839626028
sg13
I2147483646
sg14
I60926
sg15
I-30971736
sg16
VO Malley Pk (Outside No 391)
p937
sg18
I189527724
sg19
I0
sbag1
(g2
g3
Ntp938
Rp939
(dp940
g7
I00
sg8
VQNSCTG
p941
sg10
V6350927368470663458
p942
sg12
I1501839626023
sg13
I2147483646
sg14
I60807
sg15
I-31071168
sg16
VEdward St (Quins Cottage)
p943
sg18
I189553032
sg19
I0
sbag1
(g2
g3
Ntp944
Rp945
(dp946
g7
I00
sg8
VJNCBYR
p947
sg10
V6350927368470663459
p948
sg12
I1501839626023
sg13
I2147483646
sg14
I60808
sg15
I-31072248
sg16
VByrne Ave (Jctn of Byrne Ave)
p949
sg18
I189550188
sg19
I0
sbag1
(g2
g3
Ntp950
Rp951
(dp952
g7
I00
sg8
VCLNLR
p953
sg10
V6350927368470661023
p954
sg12
I1501839625961
sg13
I2147483646
sg14
I33678
sg15
I-30791664
sg16
VClonlara (Opp Stritches Pub)
p955
sg18
I189806184
sg19
I0
sbag1
(g2
g3
Ntp956
Rp957
(dp958
g7
I00
sg8
VLMRCK
p959
sg10
V6350927368470659562
p960
sg12
I1501839625929
sg13
I2147483646
sg14
I63503
sg15
I-31048164
sg16
VLimerick (Bus Station)
p961
sg18
I189570744
sg19
I0
sbag1
(g2
g3
Ntp962
Rp963
(dp964
g7
I00
sg8
VMRTLRS
p965
sg10
V6350927368470663385
p966
sg12
I1501839626021
sg13
I2147483646
sg14
I60732
sg15
I-31059324
sg16
VRoches Street (Mortells Restaurant)
p967
sg18
I189583704
sg19
I0
sbag1
(g2
g3
Ntp968
Rp969
(dp970
g7
I00
sg8
VBCFVE
p971
sg10
V6350927368470663404
p972
sg12
I1501839626022
sg13
I2147483646
sg14
I60752
sg15
I-31107132
sg16
VBallinacurra (No 5)
p973
sg18
I189527976
sg19
I0
sbag1
(g2
g3
Ntp974
Rp975
(dp976
g7
I00
sg8
VNETYTG
p977
sg10
V6350927368470663394
p978
sg12
I1501839626021
sg13
I2147483646
sg14
I60741
sg15
I-31077792
sg16
VHigh Road (No 90)
p979
sg18
I189615816
sg19
I0
sbag1
(g2
g3
Ntp980
Rp981
(dp982
g7
I00
sg8
VONERVW
p983
sg10
V6350927368470663320
p984
sg12
I1501839626019
sg13
I2147483646
sg14
I60667
sg15
I-30985416
sg16
VShannon Banks Est (No 1 Riverwalk)
p985
sg18
I189662940
sg19
I0
sbag1
(g2
g3
Ntp986
Rp987
(dp988
g7
I00
sg8
VBLYCRU
p989
sg10
V6350927368470663395
p990
sg12
I1501839626021
sg13
I2147483646
sg14
I60742
sg15
I-31107924
sg16
VBallynanty (Credit Union)
p991
sg18
I189632376
sg19
I0
sbag1
(g2
g3
Ntp992
Rp993
(dp994
g7
I00
sg8
VDLMGGR
p995
sg10
V6350927368470663519
p996
sg12
I1501839626027
sg13
I2147483646
sg14
I60868
sg15
I-31160160
sg16
VPineview (Delmege Gardens)
p997
sg18
I189655956
sg19
I0
sbag1
(g2
g3
Ntp998
Rp999
(dp1000
g7
I00
sg8
VSTENSC
p1001
sg10
V6350927368470663518
p1002
sg12
I1501839626026
sg13
I2147483646
sg14
I60867
sg15
I-30949740
sg16
VKilmallock Rd (St Endas School Stop)
p1003
sg18
I189534060
sg19
I0
sbag1
(g2
g3
Ntp1004
Rp1005
(dp1006
g7
I00
sg8
VNTLTCH
p1007
sg10
V6350927368470663506
p1008
sg12
I1501839626026
sg13
I2147483646
sg14
I60855
sg15
I-30774600
sg16
VPlassey Pk Rd (National Technological Pk
p1009
sg18
I189623484
sg19
I0
sbag1
(g2
g3
Ntp1010
Rp1011
(dp1012
g7
I00
sg8
VKLLMLK
p1013
sg10
V6350927368470663517
p1014
sg12
I1501839626026
sg13
I2147483646
sg14
I60866
sg15
I-30940236
sg16
VKilmallock Rd (Georgian Village)
p1015
sg18
I189528840
sg19
I0
sbag1
(g2
g3
Ntp1016
Rp1017
(dp1018
g7
I00
sg8
VPRNLLK
p1019
sg10
V6350927368470664923
p1020
sg12
I1501839626083
sg13
I2147483646
sg14
I60970
sg15
I-31053168
sg16
VParnell St (Ladbrokes)
p1021
sg18
I189571068
sg19
I0
sbag1
(g2
g3
Ntp1022
Rp1023
(dp1024
g7
I00
sg8
VPTKRRC
p1025
sg10
V6350927368470664920
p1026
sg12
I1501839626083
sg13
I2147483646
sg14
I60967
sg15
I-31266324
sg16
VPatrickswell Road (Rehab Care)
p1027
sg18
I189416988
sg19
I0
sbag1
(g2
g3
Ntp1028
Rp1029
(dp1030
g7
I00
sg8
VBRTNTF
p1031
sg10
V6350927368470664915
p1032
sg12
I1501839626083
sg13
I2147483646
sg14
I60959
sg15
I-31074516
sg16
VBarrington St (At No 24)
p1033
sg18
I189570024
sg19
I0
sbag1
(g2
g3
Ntp1034
Rp1035
(dp1036
g7
I00
sg8
VPTKROR
p1037
sg10
V6350927368470664916
p1038
sg12
I1501839626083
sg13
I2147483646
sg14
I60960
sg15
I-31266828
sg16
VPatrickswell Rd (Opp Rehab Care)
p1039
sg18
I189416016
sg19
I0
sbag1
(g2
g3
Ntp1040
Rp1041
(dp1042
g7
I00
sg8
VCRELVN
p1043
sg10
V6350927368470663331
p1044
sg12
I1501839626020
sg13
I2147483646
sg14
I60678
sg15
I-31016448
sg16
VCorbally Rd (House No 11)
p1045
sg18
I189626796
sg19
I0
sbag1
(g2
g3
Ntp1046
Rp1047
(dp1048
g7
I00
sg8
VOPMLRD
p1049
sg10
V6350927368470663330
p1050
sg12
I1501839626020
sg13
I2147483646
sg14
I60677
sg15
I-31012452
sg16
VCorbally Rd (Opp Mill Rd Jctn)
p1051
sg18
I189636948
sg19
I0
sbag1
(g2
g3
Ntp1052
Rp1053
(dp1054
g7
I00
sg8
VSHABRD
p1055
sg10
V6350927368470663390
p1056
sg12
I1501839626021
sg13
I2147483646
sg14
I60737
sg15
I-31117104
sg16
VBallynanty (No 31 Shanabooley Rd)
p1057
sg18
I189632268
sg19
I0
sbag1
(g2
g3
Ntp1058
Rp1059
(dp1060
g7
I00
sg8
VJCTSTP
p1061
sg10
V6350927368470663504
p1062
sg12
I1501839626026
sg13
I2147483646
sg14
I60853
sg15
I-30977208
sg16
VMulgrave St (St Patricks Rd)
p1063
sg18
I189560988
sg19
I0
sbag1
(g2
g3
Ntp1064
Rp1065
(dp1066
g7
I00
sg8
VOPNLTC
p1067
sg10
V6350927368470663507
p1068
sg12
I1501839626026
sg13
I2147483646
sg14
I60856
sg15
I-30771252
sg16
VPlassey Pk Rd (Op National Tech Pk)
p1069
sg18
I189624384
sg19
I0
sbag1
(g2
g3
Ntp1070
Rp1071
(dp1072
g7
I00
sg8
VCHLDSY
p1073
sg10
V6350927368470664177
p1074
sg12
I1501839626054
sg13
I2147483646
sg14
I60936
sg15
I-31039488
sg16
VChilders Rd (No. 1 Sycamore Ave)
p1075
sg18
I189534384
sg19
I0
sbag1
(g2
g3
Ntp1076
Rp1077
(dp1078
g7
I00
sg8
VLWRMLS
p1079
sg10
V6350927368470664176
p1080
sg12
I1501839626054
sg13
I2147483646
sg14
I60934
sg15
I-31067064
sg16
VLower Mallow St (25)
p1081
sg18
I189575640
sg19
I0
sbag1
(g2
g3
Ntp1082
Rp1083
(dp1084
g7
I00
sg8
VTHRVDR
p1085
sg10
V6350927368470663318
p1086
sg12
I1501839626019
sg13
I2147483646
sg14
I60665
sg15
I-30999888
sg16
VShannon Banks Est (33 Riverside Dr)
p1087
sg18
I189662544
sg19
I0
sbag1
(g2
g3
Ntp1088
Rp1089
(dp1090
g7
I00
sg8
VCBRDSB
p1091
sg10
V6350927368470663321
p1092
sg12
I1501839626019
sg13
I2147483646
sg14
I60668
sg15
I-30984624
sg16
VCorbally Rd (Shannon Banks Estate)
p1093
sg18
I189659160
sg19
I0
sbag1
(g2
g3
Ntp1094
Rp1095
(dp1096
g7
I00
sg8
VBLCHYD
p1097
sg10
V6350927368470663461
p1098
sg12
I1501839626023
sg13
I2147483646
sg14
I60810
sg15
I-31061772
sg16
VHyde Ave Limerick (No 6)
p1099
sg18
I189539460
sg19
I0
sbag1
(g2
g3
Ntp1100
Rp1101
(dp1102
g7
I00
sg8
VANLGDV
p1103
sg10
V6350927368470663463
p1104
sg12
I1501839626023
sg13
I2147483646
sg14
I60812
sg15
I-31166712
sg16
VRaheen Ind Est (Analog Devices)
p1105
sg18
I189459036
sg19
I0
sbag1
(g2
g3
Ntp1106
Rp1107
(dp1108
g7
I00
sg8
VMGHRCL
p1109
sg10
V6350927368470663469
p1110
sg12
I1501839626024
sg13
I2147483646
sg14
I60818
sg15
I-31049604
sg16
VHyde Rd (Meagher Close)
p1111
sg18
I189563544
sg19
I0
sbag1
(g2
g3
Ntp1112
Rp1113
(dp1114
g7
I00
sg8
VSVTYSX
p1115
sg10
V6350927368470663468
p1116
sg12
I1501839626024
sg13
I2147483646
sg14
I60817
sg15
I-31053240
sg16
VHyde Rd (No 76)
p1117
sg18
I189550188
sg19
I0
sbag1
(g2
g3
Ntp1118
Rp1119
(dp1120
g7
I00
sg8
VTGHRSH
p1121
sg10
V6350927368470663474
p1122
sg12
I1501839626024
sg13
I2147483646
sg14
I60823
sg15
I-30962448
sg16
VLynwood Park (Toghers Shop)
p1123
sg18
I189571716
sg19
I0
sbag1
(g2
g3
Ntp1124
Rp1125
(dp1126
g7
I00
sg8
VOPLYNW
p1127
sg10
V6350927368470663475
p1128
sg12
I1501839626024
sg13
I2147483646
sg14
I60824
sg15
I-30967092
sg16
VCathal Brugha Rd (Op No 1 Lynwood Pk)
p1129
sg18
I189566964
sg19
I0
sbag1
(g2
g3
Ntp1130
Rp1131
(dp1132
g7
I00
sg8
VSXTYSX
p1133
sg10
V6350927368470663467
p1134
sg12
I1501839626024
sg13
I2147483646
sg14
I60816
sg15
I-31061628
sg16
VHyde Rd (No 66)
p1135
sg18
I189539964
sg19
I0
sbag1
(g2
g3
Ntp1136
Rp1137
(dp1138
g7
I00
sg8
VTHRYNE
p1139
sg10
V6350927368470663466
p1140
sg12
I1501839626023
sg13
I2147483646
sg14
I60815
sg15
I-31069260
sg16
VHyde Rd (No 39)
p1141
sg18
I189534528
sg19
I0
sbag1
(g2
g3
Ntp1142
Rp1143
(dp1144
g7
I00
sg8
VPLPSPK
p1145
sg10
V6350927368470663470
p1146
sg12
I1501839626024
sg13
I2147483646
sg14
I60819
sg15
I-31055328
sg16
VUpper Mallow St (Peoples Park)
p1147
sg18
I189571032
sg19
I0
sbag1
(g2
g3
Ntp1148
Rp1149
(dp1150
g7
I00
sg8
VFASOFF
p1151
sg10
V6350927368470663465
p1152
sg12
I1501839626023
sg13
I2147483646
sg14
I60814
sg15
I-31169412
sg16
VRaheen Ind Est (FAS Office)
p1153
sg18
I189448560
sg19
I0
sbag1
(g2
g3
Ntp1154
Rp1155
(dp1156
g7
I00
sg8
VJNCWLF
p1157
sg10
V6350927368470663457
p1158
sg12
I1501839626023
sg13
I2147483646
sg14
I60806
sg15
I-31062348
sg16
VEdward St (Jctn of Wolfe Tone St)
p1159
sg18
I189560412
sg19
I0
sbag1
(g2
g3
Ntp1160
Rp1161
(dp1162
g7
I00
sg8
VOPFRFV
p1163
sg10
V6350927368470663317
p1164
sg12
I1501839626019
sg13
I2147483646
sg14
I60664
sg15
I-30998124
sg16
VShannon Banks Est (Op 45 Riverside Dr)
p1165
sg18
I189665964
sg19
I0
sbag1
(g2
g3
Ntp1166
Rp1167
(dp1168
g7
I00
sg8
VARQYSH
p1169
sg10
V6350927368470663310
p1170
sg12
I1501839626019
sg13
I2147483646
sg14
I60557
sg15
I-31054896
sg16
VArthurs Quay (Opp Shopping Centre)
p1171
sg18
I189594360
sg19
I0
sbag1
(g2
g3
Ntp1172
Rp1173
(dp1174
g7
I00
sg8
VANNVGR
p1175
sg10
V6350927368470663322
p1176
sg12
I1501839626019
sg13
I2147483646
sg14
I60669
sg15
I-30972888
sg16
VWestbury Est (Annavilla Grove)
p1177
sg18
I189670104
sg19
I0
sbag1
(g2
g3
Ntp1178
Rp1179
(dp1180
g7
I00
sg8
VBRKVAV
p1181
sg10
V6350927368470663346
p1182
sg12
I1501839626020
sg13
I2147483646
sg14
I60693
sg15
I-31161708
sg16
VBrookville Ave (Brookville Ave)
p1183
sg18
I189621576
sg19
I0
sbag1
(g2
g3
Ntp1184
Rp1185
(dp1186
g7
I00
sg8
VTRNYSH
p1187
sg10
V6350927368470663382
p1188
sg12
I1501839626021
sg13
I2147483646
sg14
I60729
sg15
I-31020228
sg16
VRoxboro Rd (Tierneys Shop)
p1189
sg18
I189552852
sg19
I0
sbag1
(g2
g3
Ntp1190
Rp1191
(dp1192
g7
I00
sg8
VCNRSOF
p1193
sg10
V6350927368470665811
p1194
sg12
I1501839626118
sg13
I2147483646
sg14
I33326
sg15
I-30962699
sg16
VConnors Cross (Opp Filling Station)
p1195
sg18
I189720540
sg19
I0
sbag1
(g2
g3
Ntp1196
Rp1197
(dp1198
g7
I00
sg8
VFVCRRD
p1199
sg10
V6350927368470663347
p1200
sg12
I1501839626020
sg13
I2147483646
sg14
I60694
sg15
I-31125672
sg16
VCratloe Rd (Limerick Inst of Tech)
p1201
sg18
I189624888
sg19
I0
sbag1
(g2
g3
Ntp1202
Rp1203
(dp1204
g7
I00
sg8
VPRTNCS
p1205
sg10
V6350927368470665819
p1206
sg12
I1501839626119
sg13
I2147483646
sg14
I33379
sg15
I-30988007
sg16
VParteen (Co-Op Superstones)
p1207
sg18
I189713556
sg19
I0
sbag1
(g2
g3
Ntp1208
Rp1209
(dp1210
g7
I00
sg8
VPRTNOS
p1211
sg10
V6350927368470665818
p1212
sg12
I1501839626119
sg13
I2147483646
sg14
I33378
sg15
I-30988619
sg16
VParteen (Opp Co-Op Superstores)
p1213
sg18
I189713844
sg19
I0
sbag1
(g2
g3
Ntp1214
Rp1215
(dp1216
g7
I00
sg8
VPRTNOB
p1217
sg10
V6350927368470665817
p1218
sg12
I1501839626119
sg13
I2147483646
sg14
I33377
sg15
I-31010291
sg16
VParteen (Opp Bishop Murphy Park)
p1219
sg18
I189709236
sg19
I0
sbag1
(g2
g3
Ntp1220
Rp1221
(dp1222
g7
I00
sg8
VPRTNAB
p1223
sg10
V6350927368470665816
p1224
sg12
I1501839626119
sg13
I2147483646
sg14
I33376
sg15
I-31026563
sg16
VParteen (R464 after Bridge)
p1225
sg18
I189700812
sg19
I0
sbag1
(g2
g3
Ntp1226
Rp1227
(dp1228
g7
I00
sg8
VLDLRDH
p1229
sg10
V6350927368470663406
p1230
sg12
I1501839626022
sg13
I2147483646
sg14
I60754
sg15
I-31075920
sg16
VChilders Rd (Lady of Lourdes Church)
p1231
sg18
I189533412
sg19
I0
sbag1
(g2
g3
Ntp1232
Rp1233
(dp1234
g7
I00
sg8
VPPROEG
p1235
sg10
V6350927368470666416
p1236
sg12
I1501839626139
sg13
I2147483646
sg14
I60774
sg15
I-30827411
sg16
VPlassey Park Road (Opp UL East Gate)
p1237
sg18
I189614052
sg19
I0
sbag1
(g2
g3
Ntp1238
Rp1239
(dp1240
g7
I00
sg8
VBLCNOT
p1241
sg10
V6350927368470665813
p1242
sg12
I1501839626119
sg13
I2147483646
sg14
I33373
sg15
I-31152347
sg16
VBallycannon (Opp Meelick Tavern)
p1243
sg18
I189723456
sg19
I0
sbag1
(g2
g3
Ntp1244
Rp1245
(dp1246
g7
I00
sg8
VSRSFBR
p1247
sg10
V6350927368470663352
p1248
sg12
I1501839626020
sg13
I2147483646
sg14
I60699
sg15
I-31070412
sg16
VClancy Strand (Sarsfield Bridge)
p1249
sg18
I189598032
sg19
I0
sbag1
(g2
g3
Ntp1250
Rp1251
(dp1252
g7
I00
sg8
VSTBLES
p1253
sg10
V6350927368470663415
p1254
sg12
I1501839626022
sg13
I2147483646
sg14
I60763
sg15
I-30854916
sg16
VUniversity of Limerick (Stables)
p1255
sg18
I189621792
sg19
I0
sbag1
(g2
g3
Ntp1256
Rp1257
(dp1258
g7
I00
sg8
VUOLDRM
p1259
sg10
V6350927368470663414
p1260
sg12
I1501839626022
sg13
I2147483646
sg14
I60762
sg15
I-30873492
sg16
VUniversity of Limerick (Dromroe Stop)
p1261
sg18
I189615924
sg19
I0
sbag1
(g2
g3
Ntp1262
Rp1263
(dp1264
g7
I00
sg8
VUOLFLG
p1265
sg10
V6350927368470663413
p1266
sg12
I1501839626022
sg13
I2147483646
sg14
I60761
sg15
I-30869784
sg16
VUniversity of Limerick (Flag Poles)
p1267
sg18
I189608328
sg19
I0
sbag1
(g2
g3
Ntp1268
Rp1269
(dp1270
g7
I00
sg8
VOPNRSG
p1271
sg10
V6350927368470663412
p1272
sg12
I1501839626022
sg13
I2147483646
sg14
I60760
sg15
I-30885948
sg16
VPlassey Park Rd (Opp Nursing Home)
p1273
sg18
I189601416
sg19
I0
sbag1
(g2
g3
Ntp1274
Rp1275
(dp1276
g7
I00
sg8
VLFFLDG
p1277
sg10
V6350927368470663405
p1278
sg12
I1501839626022
sg13
I2147483646
sg14
I60753
sg15
I-31098852
sg16
VBallinacurra (Lifford Lodge)
p1279
sg18
I189531900
sg19
I0
sbag1
(g2
g3
Ntp1280
Rp1281
(dp1282
g7
I00
sg8
VOPPRKW
p1283
sg10
V6350927368470663411
p1284
sg12
I1501839626022
sg13
I2147483646
sg14
I60759
sg15
I-30928788
sg16
VDublin Rd (Opp Parkway Retail Pk)
p1285
sg18
I189584568
sg19
I0
sbag1
(g2
g3
Ntp1286
Rp1287
(dp1288
g7
I00
sg8
VOPENCL
p1289
sg10
V6350927368470663410
p1290
sg12
I1501839626022
sg13
I2147483646
sg14
I60758
sg15
I-30946860
sg16
VChilders Rd (Opp Claughaun GAA)
p1291
sg18
I189572256
sg19
I0
sbag1
(g2
g3
Ntp1292
Rp1293
(dp1294
g7
I00
sg8
VSHPCNT
p1295
sg10
V6350927368470663409
p1296
sg12
I1501839626022
sg13
I2147483646
sg14
I60757
sg15
I-30950352
sg16
VChilders Rd (Opp Shopping Centre)
p1297
sg18
I189565344
sg19
I0
sbag1
(g2
g3
Ntp1298
Rp1299
(dp1300
g7
I00
sg8
VHRLBST
p1301
sg10
V6350927368470663419
p1302
sg12
I1501839626022
sg13
I2147483646
sg14
I60767
sg15
I-30814056
sg16
VDublin Rd (Opp The Hurlers Pub)
p1303
sg18
I189603144
sg19
I0
sbag1
(g2
g3
Ntp1304
Rp1305
(dp1306
g7
I00
sg8
VKLMHTL
p1307
sg10
V6350927368470663418
p1308
sg12
I1501839626022
sg13
I2147483646
sg14
I60766
sg15
I-30796668
sg16
VKilmurry Hotel (Milford Rd)
p1309
sg18
I189606708
sg19
I0
sbag1
(g2
g3
Ntp1310
Rp1311
(dp1312
g7
I00
sg8
VCMCNBY
p1313
sg10
V6350927368470663396
p1314
sg12
I1501839626021
sg13
I2147483646
sg14
I60743
sg15
I-31121100
sg16
VBallynanty (Community Centre)
p1315
sg18
I189638676
sg19
I0
sbag1
(g2
g3
Ntp1316
Rp1317
(dp1318
g7
I00
sg8
VRCHMRG
p1319
sg10
V6350927368470663477
p1320
sg12
I1501839626024
sg13
I2147483646
sg14
I60826
sg15
I-30976776
sg16
VWell Field (Richmond RFC Pitch)
p1321
sg18
I189581328
sg19
I0
sbag1
(g2
g3
Ntp1322
Rp1323
(dp1324
g7
I00
sg8
VSTBRCH
p1325
sg10
V6350927368470663476
p1326
sg12
I1501839626024
sg13
I2147483646
sg14
I60825
sg15
I-30967704
sg16
VSt Patricks Rd (St Brigids Church)
p1327
sg18
I189572868
sg19
I0
sbag1
(g2
g3
Ntp1328
Rp1329
(dp1330
g7
I00
sg8
VHSESVN
p1331
sg10
V6350927368470663479
p1332
sg12
I1501839626024
sg13
I2147483646
sg14
I60828
sg15
I-31002156
sg16
VSth Claughan Rd (No 7)
p1333
sg18
I189579240
sg19
I0
sbag1
(g2
g3
Ntp1334
Rp1335
(dp1336
g7
I00
sg8
VTWNTFV
p1337
sg10
V6350927368470663478
p1338
sg12
I1501839626024
sg13
I2147483646
sg14
I60827
sg15
I-30989988
sg16
VSth Claughan Rd (No 25)
p1339
sg18
I189580860
sg19
I0
sbag1
(g2
g3
Ntp1340
Rp1341
(dp1342
g7
I00
sg8
VJYODBR
p1343
sg10
V6350927368470663481
p1344
sg12
I1501839626024
sg13
I2147483646
sg14
I60830
sg15
I-31021632
sg16
VMulgrave St (Jerry O Deas Bar)
p1345
sg18
I189574524
sg19
I0
sbag1
(g2
g3
Ntp1346
Rp1347
(dp1348
g7
I00
sg8
VOPPNNE
p1349
sg10
V6350927368470663480
p1350
sg12
I1501839626024
sg13
I2147483646
sg14
I60829
sg15
I-31010220
sg16
VMarkets Field Terrace (No 9)
p1351
sg18
I189574632
sg19
I0
sbag1
(g2
g3
Ntp1352
Rp1353
(dp1354
g7
I00
sg8
VOPPCRU
p1355
sg10
V6350927368470663483
p1356
sg12
I1501839626025
sg13
I2147483646
sg14
I60832
sg15
I-31041756
sg16
VSexton St (Opp McGraths Servicing & Tyre
p1357
sg18
I189578052
sg19
I0
sbag1
(g2
g3
Ntp1358
Rp1359
(dp1360
g7
I00
sg8
VOPFRST
p1361
sg10
V6350927368470663482
p1362
sg12
I1501839626025
sg13
I2147483646
sg14
I60831
sg15
I-31028256
sg16
VMulgrave St (Opp Fire Station)
p1363
sg18
I189576864
sg19
I0
sbag1
(g2
g3
Ntp1364
Rp1365
(dp1366
g7
I00
sg8
VLRKNFS
p1367
sg10
V6350927368470665810
p1368
sg12
I1501839626118
sg13
I2147483646
sg14
I33325
sg15
I-30972311
sg16
VLarkins Cross (Filling Station)
p1369
sg18
I189682596
sg19
I0
sbag1
(g2
g3
Ntp1370
Rp1371
(dp1372
g7
I00
sg8
VMYRTRC
p1373
sg10
V6350927368470663569
p1374
sg12
I1501839626028
sg13
I2147483646
sg14
I60920
sg15
I-31141152
sg16
VCraeval Park (Turning Circle)
p1375
sg18
I189655092
sg19
I0
sbag1
(g2
g3
Ntp1376
Rp1377
(dp1378
g7
I00
sg8
VOPPPST
p1379
sg10
V6350927368470663473
p1380
sg12
I1501839626024
sg13
I2147483646
sg14
I60822
sg15
I-31050720
sg16
VHyde Rd (Post Office)
p1381
sg18
I189569556
sg19
I0
sbag1
(g2
g3
Ntp1382
Rp1383
(dp1384
g7
I00
sg8
VMLWSTR
p1385
sg10
V6350927368470663472
p1386
sg12
I1501839626024
sg13
I2147483646
sg14
I60821
sg15
I-31060980
sg16
VUpper Mallow St (Jctn Pery Sq)
p1387
sg18
I189573408
sg19
I0
sbag1
(g2
g3
Ntp1388
Rp1389
(dp1390
g7
I00
sg8
VDKCVCR
p1391
sg10
V6350927368470663311
p1392
sg12
I1501839626019
sg13
I2147483646
sg14
I60558
sg15
I-31040136
sg16
VAthlunkard St (Dick Devanes Corner)
p1393
sg18
I189605556
sg19
I0
sbag1
(g2
g3
Ntp1394
Rp1395
(dp1396
g7
I00
sg8
VDRGLKR
p1397
sg10
V6350927368470663421
p1398
sg12
I1501839626022
sg13
I2147483646
sg14
I60769
sg15
I-30860136
sg16
VDublin Rd (Jct Golf Links Rd)
p1399
sg18
I189599292
sg19
I0
sbag1
(g2
g3
Ntp1400
Rp1401
(dp1402
g7
I00
sg8
VCRSMSC
p1403
sg10
V6350927368470666459
p1404
sg12
I1501839626140
sg13
I2147483646
sg14
I60675
sg15
I-30998915
sg16
VCorbally Rd (St Munchins School)
p1405
sg18
I189651564
sg19
I0
sbag1
(g2
g3
Ntp1406
Rp1407
(dp1408
g7
I00
sg8
VDNNSTR
p1409
sg10
V6350927368470663335
p1410
sg12
I1501839626020
sg13
I2147483646
sg14
I60682
sg15
I-31064616
sg16
VHenry Street (Dunnes Stores)
p1411
sg18
I189588168
sg19
I0
sbag1
(g2
g3
Ntp1412
Rp1413
(dp1414
g7
I00
sg8
VGRDRND
p1415
sg10
V6350927368470663422
p1416
sg12
I1501839626022
sg13
I2147483646
sg14
I60770
sg15
I-30879612
sg16
VDublin Rd (Groody Roundabout)
p1417
sg18
I189596592
sg19
I0
sbag1
(g2
g3
Ntp1418
Rp1419
(dp1420
g7
I00
sg8
VAVNSTA
p1421
sg10
V6350927368470664179
p1422
sg12
I1501839626055
sg13
I2147483646
sg14
I60938
sg15
I-31170420
sg16
VSt Nessans Road (Opp Meadowvale Est)
p1423
sg18
I189475848
sg19
I0
sbag1
(g2
g3
Ntp1424
Rp1425
(dp1426
g7
I00
sg8
VCLNLOS
p1427
sg10
V6350927368470665828
p1428
sg12
I1501839626119
sg13
I2147483646
sg14
I34597
sg15
I-30793931
sg16
VClonlara (Opp School)
p1429
sg18
I189808020
sg19
I0
sbag1
(g2
g3
Ntp1430
Rp1431
(dp1432
g7
I00
sg8
VPRKRTL
p1433
sg10
V6350927368470663423
p1434
sg12
I1501839626022
sg13
I2147483646
sg14
I60771
sg15
I-30927564
sg16
VDublin Rd (Parkway Retail Pk)
p1435
sg18
I189584208
sg19
I0
sbag1
(g2
g3
Ntp1436
Rp1437
(dp1438
g7
I00
sg8
VTRYSTN
p1439
sg10
V6350927368470663351
p1440
sg12
I1501839626020
sg13
I2147483646
sg14
I60698
sg15
I-31060764
sg16
VClancy Strand (Treaty Stone)
p1441
sg18
I189609660
sg19
I0
sbag1
(g2
g3
Ntp1442
Rp1443
(dp1444
g7
I00
sg8
VAVNMFS
p1445
sg10
V6350927368470664178
p1446
sg12
I1501839626054
sg13
I2147483646
sg14
I60937
sg15
I-31145436
sg16
VAvonmore Rd (Eircom Building)
p1447
sg18
I189464220
sg19
I0
sbag1
(g2
g3
Ntp1448
Rp1449
(dp1450
g7
I00
sg8
VUOLBKG
p1451
sg10
V6350927368470663416
p1452
sg12
I1501839626022
sg13
I2147483646
sg14
I60764
sg15
I-30827484
sg16
VPlassey Pk Rd (UL East Gate)
p1453
sg18
I189614268
sg19
I0
sbag1
(g2
g3
Ntp1454
Rp1455
(dp1456
g7
I00
sg8
VOPFVRS
p1457
sg10
V6350927368470663553
p1458
sg12
I1501839626028
sg13
I2147483646
sg14
I60902
sg15
I-31170636
sg16
VFr Russell Rd (Op No 5 Rosebrook Est)
p1459
sg18
I189496872
sg19
I0
sbag1
(g2
g3
Ntp1460
Rp1461
(dp1462
g7
I00
sg8
VOPFYSX
p1463
sg10
V6350927368470663324
p1464
sg12
I1501839626020
sg13
I2147483646
sg14
I60671
sg15
I-30950568
sg16
VWestbury Est (Op No 56 Clonard)
p1465
sg18
I189658584
sg19
I0
sbag1
(g2
g3
Ntp1466
Rp1467
(dp1468
g7
I00
sg8
VOPOKLW
p1469
sg10
V6350927368470663417
p1470
sg12
I1501839626022
sg13
I2147483646
sg14
I60765
sg15
I-30806676
sg16
VPlassey Pk Rd (Opp Oak Lawn)
p1471
sg18
I189614412
sg19
I0
sbag1
(g2
g3
Ntp1472
Rp1473
(dp1474
g7
I00
sg8
VFTSNVS
p1475
sg10
V6350927368470663494
p1476
sg12
I1501839626026
sg13
I2147483646
sg14
I60843
sg15
I-31032324
sg16
VUpr William St (Future Sound & Vision)
p1477
sg18
I189577872
sg19
I0
sbag1
(g2
g3
Ntp1478
Rp1479
(dp1480
g7
I00
sg8
VCLGFED
p1481
sg10
V6350927368470663495
p1482
sg12
I1501839626026
sg13
I2147483646
sg14
I60844
sg15
I-31019760
sg16
VMulgrave St (College of Further Ed)
p1483
sg18
I189574272
sg19
I0
sbag1
(g2
g3
Ntp1484
Rp1485
(dp1486
g7
I00
sg8
VENRDMT
p1487
sg10
V6350927368470663488
p1488
sg12
I1501839626025
sg13
I2147483646
sg14
I60837
sg15
I-31202100
sg16
VEnnis Rd (Ennis Rd Motors)
p1489
sg18
I189620640
sg19
I0
sbag1
(g2
g3
Ntp1490
Rp1491
(dp1492
g7
I00
sg8
VGRHLHT
p1493
sg10
V6350927368470663489
p1494
sg12
I1501839626025
sg13
I2147483646
sg14
I60838
sg15
I-31205412
sg16
VEnnis Rd (Greenhills Hotel Car Park)
p1495
sg18
I189621828
sg19
I0
sbag1
(g2
g3
Ntp1496
Rp1497
(dp1498
g7
I00
sg8
VOPIVSH
p1499
sg10
V6350927368470663490
p1500
sg12
I1501839626026
sg13
I2147483646
sg14
I60839
sg15
I-31187484
sg16
VEnnis Rd (Opp Ivans Shop)
p1501
sg18
I189617400
sg19
I0
sbag1
(g2
g3
Ntp1502
Rp1503
(dp1504
g7
I00
sg8
VPRCNGL
p1505
sg10
V6350927368470663491
p1506
sg12
I1501839626026
sg13
I2147483646
sg14
I60840
sg15
I-31160916
sg16
VEnnis Rd (Pairc Na Gael)
p1507
sg18
I189610056
sg19
I0
sbag1
(g2
g3
Ntp1508
Rp1509
(dp1510
g7
I00
sg8
VOPSTBR
p1511
sg10
V6350927368470663500
p1512
sg12
I1501839626026
sg13
I2147483646
sg14
I60849
sg15
I-30967416
sg16
VSt Patricks Rd (Op St Brigids Church)
p1513
sg18
I189573300
sg19
I0
sbag1
(g2
g3
Ntp1514
Rp1515
(dp1516
g7
I00
sg8
VGLYNSH
p1517
sg10
V6350927368470663501
p1518
sg12
I1501839626026
sg13
I2147483646
sg14
I60850
sg15
I-31011768
sg16
VMulgrave St (Glynns Shop)
p1519
sg18
I189571752
sg19
I0
sbag1
(g2
g3
Ntp1520
Rp1521
(dp1522
g7
I00
sg8
VBLCNEC
p1523
sg10
V6350927368470665823
p1524
sg12
I1501839626119
sg13
I2147483646
sg14
I33383
sg15
I-31161635
sg16
VBallycannon (Elton Court)
p1525
sg18
I189720252
sg19
I0
sbag1
(g2
g3
Ntp1526
Rp1527
(dp1528
g7
I00
sg8
VJCTNHY
p1529
sg10
V6350927368470663462
p1530
sg12
I1501839626023
sg13
I2147483646
sg14
I60811
sg15
I-31068216
sg16
VHyde Ave Limerick (Opp No 39)
p1531
sg18
I189534744
sg19
I0
sbag1
(g2
g3
Ntp1532
Rp1533
(dp1534
g7
I00
sg8
VCLFTHS
p1535
sg10
V6350927368470663492
p1536
sg12
I1501839626026
sg13
I2147483646
sg14
I60841
sg15
I-31144140
sg16
VEnnis Rd (Clifton House)
p1537
sg18
I189605628
sg19
I0
sbag1
(g2
g3
Ntp1538
Rp1539
(dp1540
g7
I00
sg8
VTNSCLB
p1541
sg10
V6350927368470663493
p1542
sg12
I1501839626026
sg13
I2147483646
sg14
I60842
sg15
I-31117932
sg16
VEnnis Rd (Limerick Lawn Tennis Club)
p1543
sg18
I189600912
sg19
I0
sbag1
(g2
g3
Ntp1544
Rp1545
(dp1546
g7
I00
sg8
VOPXTVS
p1547
sg10
V6350927368470663430
p1548
sg12
I1501839626023
sg13
I2147483646
sg14
I60779
sg15
I-31147380
sg16
VSt Nessans Rd (Opp Xtra Vision)
p1549
sg18
I189502380
sg19
I0
sbag1
(g2
g3
Ntp1550
Rp1551
(dp1552
g7
I00
sg8
VOPCRSH
p1553
sg10
V6350927368470663429
p1554
sg12
I1501839626023
sg13
I2147483646
sg14
I60778
sg15
I-31133196
sg16
VSt Nessans Rd (Opp Crescent SC)
p1555
sg18
I189511272
sg19
I0
sbag1
(g2
g3
Ntp1556
Rp1557
(dp1558
g7
I00
sg8
VGLNMRE
p1559
sg10
V6350927368470663428
p1560
sg12
I1501839626023
sg13
I2147483646
sg14
I60777
sg15
I-31110948
sg16
VBallinacurra (Tall Trees)
p1561
sg18
I189525780
sg19
I0
sbag1
(g2
g3
Ntp1562
Rp1563
(dp1564
g7
I00
sg8
VKYVLLE
p1565
sg10
V6350927368470663427
p1566
sg12
I1501839626023
sg13
I2147483646
sg14
I60776
sg15
I-31097880
sg16
VBallinacurra (Sandyville)
p1567
sg18
I189532008
sg19
I0
sbag1
(g2
g3
Ntp1568
Rp1569
(dp1570
g7
I00
sg8
VOPLDLR
p1571
sg10
V6350927368470663426
p1572
sg12
I1501839626022
sg13
I2147483646
sg14
I60775
sg15
I-31076964
sg16
VChilders Rd (Op our Lady of Lourdes Cent
p1573
sg18
I189533124
sg19
I0
sbag1
(g2
g3
Ntp1574
Rp1575
(dp1576
g7
I00
sg8
VALDIST
p1577
sg10
V6350927368470663425
p1578
sg12
I1501839626022
sg13
I2147483646
sg14
I60773
sg15
I-31023360
sg16
VChilders Rd (ALDI Store)
p1579
sg18
I189534852
sg19
I0
sbag1
(g2
g3
Ntp1580
Rp1581
(dp1582
g7
I00
sg8
VCHSHPP
p1583
sg10
V6350927368470663424
p1584
sg12
I1501839626022
sg13
I2147483646
sg14
I60772
sg15
I-30948480
sg16
VChilders Rd (Shopping Centre)
p1585
sg18
I189567396
sg19
I0
sbag1
(g2
g3
Ntp1586
Rp1587
(dp1588
g7
I00
sg8
VARDHBR
p1589
sg10
V6350927368470663484
p1590
sg12
I1501839626025
sg13
I2147483646
sg14
I60833
sg15
I-31136400
sg16
VEnnis Rd (Ardhu Bar)
p1591
sg18
I189603360
sg19
I0
sbag1
(g2
g3
Ntp1592
Rp1593
(dp1594
g7
I00
sg8
VNTHTSH
p1595
sg10
V6350927368470663485
p1596
sg12
I1501839626025
sg13
I2147483646
sg14
I60834
sg15
I-31151412
sg16
VEnnis Rd (North Twn Shopp Centre)
p1597
sg18
I189607356
sg19
I0
sbag1
(g2
g3
Ntp1598
Rp1599
(dp1600
g7
I00
sg8
VJETLND
p1601
sg10
V6350927368470663487
p1602
sg12
I1501839626025
sg13
I2147483646
sg14
I60836
sg15
I-31176252
sg16
VEnnis Rd (Jetland)
p1603
sg18
I189614052
sg19
I0
sbag1
(g2
g3
Ntp1604
Rp1605
(dp1606
g7
I00
sg8
VOPELES
p1607
sg10
V6350927368470663420
p1608
sg12
I1501839626022
sg13
I2147483646
sg14
I60768
sg15
I-30831768
sg16
VDublin Rd (Opp Elsinor Est)
p1609
sg18
I189602532
sg19
I0
sbag1
(g2
g3
Ntp1610
Rp1611
(dp1612
g7
I00
sg8
VTWHNON
p1613
sg10
V6350927368470663342
p1614
sg12
I1501839626020
sg13
I2147483646
sg14
I60689
sg15
I-31168224
sg16
VOld Cratloe Rd (201 Cratloe Rd)
p1615
sg18
I189639936
sg19
I0
sbag1
(g2
g3
Ntp1616
Rp1617
(dp1618
g7
I00
sg8
VGERMLN
p1619
sg10
V6350927368470663503
p1620
sg12
I1501839626026
sg13
I2147483646
sg14
I60852
sg15
I-30985884
sg16
VMulgrave St (Ger Malones)
p1621
sg18
I189563688
sg19
I0
sbag1
(g2
g3
Ntp1622
Rp1623
(dp1624
g7
I00
sg8
VBRNNGS
p1625
sg10
V6350927368470663502
p1626
sg12
I1501839626026
sg13
I2147483646
sg14
I60851
sg15
I-30995208
sg16
VMulgrave St (Brannigans Pub)
p1627
sg18
I189566676
sg19
I0
sbag1
(g2
g3
Ntp1628
Rp1629
(dp1630
g7
I00
sg8
VTHNATA
p1631
sg10
V6350927368470663316
p1632
sg12
I1501839626019
sg13
I2147483646
sg14
I60663
sg15
I-30989232
sg16
VShannon Banks Est (13 Athlunkard Ave)
p1633
sg18
I189666324
sg19
I0
sbag1
(g2
g3
Ntp1634
Rp1635
(dp1636
g7
I00
sg8
VWDBNAV
p1637
sg10
V6350927368470663343
p1638
sg12
I1501839626020
sg13
I2147483646
sg14
I60690
sg15
I-31186476
sg16
VCaherdavin (Woodbine Ave)
p1639
sg18
I189632016
sg19
I0
sbag1
(g2
g3
Ntp1640
Rp1641
(dp1642
g7
I00
sg8
VJCNWDL
p1643
sg10
V6350927368470663508
p1644
sg12
I1501839626026
sg13
I2147483646
sg14
I60857
sg15
I-30970512
sg16
VBallysimon Rd (Woodlawn Park)
p1645
sg18
I189558540
sg19
I0
sbag1
(g2
g3
Ntp1646
Rp1647
(dp1648
g7
I00
sg8
VTBSTLS
p1649
sg10
V6350927368470663509
p1650
sg12
I1501839626026
sg13
I2147483646
sg14
I60858
sg15
I-30981960
sg16
VBallysimon Rd (Tubs & Tiles)
p1651
sg18
I189562176
sg19
I0
sbag1
(g2
g3
Ntp1652
Rp1653
(dp1654
g7
I00
sg8
VMNSFTV
p1655
sg10
V6350927368470663510
p1656
sg12
I1501839626026
sg13
I2147483646
sg14
I60859
sg15
I-30995496
sg16
VMulgrave St (Munster Fair Tavern)
p1657
sg18
I189566352
sg19
I0
sbag1
(g2
g3
Ntp1658
Rp1659
(dp1660
g7
I00
sg8
VSTJSHS
p1661
sg10
V6350927368470663511
p1662
sg12
I1501839626026
sg13
I2147483646
sg14
I60860
sg15
I-31009716
sg16
VMulgrave St (St Josephs Hosp)
p1663
sg18
I189570852
sg19
I0
sbag1
(g2
g3
Ntp1664
Rp1665
(dp1666
g7
I00
sg8
VOPPSVN
p1667
sg10
V6350927368470663497
p1668
sg12
I1501839626026
sg13
I2147483646
sg14
I60846
sg15
I-31002300
sg16
VSth Claughan Rd (Opp No 7)
p1669
sg18
I189579600
sg19
I0
sbag1
(g2
g3
Ntp1670
Rp1671
(dp1672
g7
I00
sg8
VHSENNE
p1673
sg10
V6350927368470663496
p1674
sg12
I1501839626026
sg13
I2147483646
sg14
I60845
sg15
I-31010580
sg16
VMarkets Field Terrace (Opp No 9)
p1675
sg18
I189574668
sg19
I0
sbag1
(g2
g3
Ntp1676
Rp1677
(dp1678
g7
I00
sg8
VOPRCMN
p1679
sg10
V6350927368470663499
p1680
sg12
I1501839626026
sg13
I2147483646
sg14
I60848
sg15
I-30976776
sg16
VWell Field (Opp Richmond RFC Pitch)
p1681
sg18
I189581328
sg19
I0
sbag1
(g2
g3
Ntp1682
Rp1683
(dp1684
g7
I00
sg8
VOPPTWN
p1685
sg10
V6350927368470663498
p1686
sg12
I1501839626026
sg13
I2147483646
sg14
I60847
sg15
I-30989736
sg16
VSth Claughan Rd (Opp No 25)
p1687
sg18
I189581112
sg19
I0
sbag1
(g2
g3
Ntp1688
Rp1689
(dp1690
g7
I00
sg8
VBLCNHT
p1691
sg10
V6350927368470665815
p1692
sg12
I1501839626119
sg13
I2147483646
sg14
I33375
sg15
I-31137983
sg16
VBallycannon (Ballycannon Heights)
p1693
sg18
I189731088
sg19
I0
sbag1
(g2
g3
Ntp1694
Rp1695
(dp1696
g7
I00
sg8
VHLTHCN
p1697
sg10
V6350927368470663388
p1698
sg12
I1501839626021
sg13
I2147483646
sg14
I60735
sg15
I-31103028
sg16
VKileely Rd (Health Centre)
p1699
sg18
I189626976
sg19
I0
sbag1
(g2
g3
Ntp1700
Rp1701
(dp1702
g7
I00
sg8
VBLCNOF
p1703
sg10
V6350927368470665814
p1704
sg12
I1501839626119
sg13
I2147483646
sg14
I33374
sg15
I-31162823
sg16
VBallycannon (Opp Meelick Foodstore)
p1705
sg18
I189720324
sg19
I0
sbag1
(g2
g3
Ntp1706
Rp1707
(dp1708
g7
I00
sg8
VSRSFBC
p1709
sg10
V6350927368470663549
p1710
sg12
I1501839626027
sg13
I2147483646
sg14
I60898
sg15
I-31119660
sg16
VSarsfield Gardens Lwr (Sarsfield Busines
p1711
sg18
I189659376
sg19
I0
sbag1
(g2
g3
Ntp1712
Rp1713
(dp1714
g7
I00
sg8
VOPCRCH
p1715
sg10
V6350927368470663550
p1716
sg12
I1501839626027
sg13
I2147483646
sg14
I60899
sg15
I-31119588
sg16
VMoyross (Opp Corpus Christy Church)
p1717
sg18
I189650844
sg19
I0
sbag1
(g2
g3
Ntp1718
Rp1719
(dp1720
g7
I00
sg8
VOPMYCC
p1721
sg10
V6350927368470663551
p1722
sg12
I1501839626027
sg13
I2147483646
sg14
I60900
sg15
I-31132656
sg16
VMoyross (Opp Community Centre)
p1723
sg18
I189652932
sg19
I0
sbag1
(g2
g3
Ntp1724
Rp1725
(dp1726
g7
I00
sg8
VFTYEGH
p1727
sg10
V6350927368470663536
p1728
sg12
I1501839626027
sg13
I2147483646
sg14
I60885
sg15
I-31057272
sg16
VSt Itas St (No 58)
p1729
sg18
I189629316
sg19
I0
sbag1
(g2
g3
Ntp1730
Rp1731
(dp1732
g7
I00
sg8
VMYREST
p1733
sg10
V6350927368470663545
p1734
sg12
I1501839626027
sg13
I2147483646
sg14
I60894
sg15
I-31098924
sg16
VKnockalisheen Rd (Moyross Est Entrance)
p1735
sg18
I189647352
sg19
I0
sbag1
(g2
g3
Ntp1736
Rp1737
(dp1738
g7
I00
sg8
VMYENPR
p1739
sg10
V6350927368470663546
p1740
sg12
I1501839626027
sg13
I2147483646
sg14
I60895
sg15
I-31108212
sg16
VKnockalisheen Rd (Moyross Enterprise Cen
p1741
sg18
I189655704
sg19
I0
sbag1
(g2
g3
Ntp1742
Rp1743
(dp1744
g7
I00
sg8
VFRSXSG
p1745
sg10
V6350927368470663547
p1746
sg12
I1501839626027
sg13
I2147483646
sg14
I60896
sg15
I-31119624
sg16
VKnockalisheen Rd (No 46 Sarsfield Garden
p1747
sg18
I189662544
sg19
I0
sbag1
(g2
g3
Ntp1748
Rp1749
(dp1750
g7
I00
sg8
VJNCWHT
p1751
sg10
V6350927368470663548
p1752
sg12
I1501839626027
sg13
I2147483646
sg14
I60897
sg15
I-31129164
sg16
VSarsfield Gardens Lwr (Jctn Whitecross G
p1753
sg18
I189661572
sg19
I0
sbag1
(g2
g3
Ntp1754
Rp1755
(dp1756
g7
I00
sg8
VOPNETH
p1757
sg10
V6350927368470663392
p1758
sg12
I1501839626021
sg13
I2147483646
sg14
I60739
sg15
I-31122432
sg16
VBallynanty (Opp No 93 Shanabooly Rd)
p1759
sg18
I189643896
sg19
I0
sbag1
(g2
g3
Ntp1760
Rp1761
(dp1762
g7
I00
sg8
VTHTWSH
p1763
sg10
V6350927368470663393
p1764
sg12
I1501839626021
sg13
I2147483646
sg14
I60740
sg15
I-31117392
sg16
VBallynanty Rd (No 32 Shanabooley Rd)
p1765
sg18
I189633024
sg19
I0
sbag1
(g2
g3
Ntp1766
Rp1767
(dp1768
g7
I00
sg8
VFRTEEN
p1769
sg10
V6350927368470663537
p1770
sg12
I1501839626027
sg13
I2147483646
sg14
I60886
sg15
I-31053492
sg16
VSt Itas St (No 14)
p1771
sg18
I189623160
sg19
I0
sbag1
(g2
g3
Ntp1772
Rp1773
(dp1774
g7
I00
sg8
VNOTWEL
p1775
sg10
V6350927368470663538
p1776
sg12
I1501839626027
sg13
I2147483646
sg14
I60887
sg15
I-31046508
sg16
VThe Island Rd (No 12)
p1777
sg18
I189619560
sg19
I0
sbag1
(g2
g3
Ntp1778
Rp1779
(dp1780
g7
I00
sg8
VPNCHCR
p1781
sg10
V6350927368470663439
p1782
sg12
I1501839626023
sg13
I2147483646
sg14
I60788
sg15
I-31091868
sg16
VPunches Cross (Punches Cross)
p1783
sg18
I189539316
sg19
I0
sbag1
(g2
g3
Ntp1784
Rp1785
(dp1786
g7
I00
sg8
VONECRS
p1787
sg10
V6350927368470663441
p1788
sg12
I1501839626023
sg13
I2147483646
sg14
I60790
sg15
I-31133448
sg16
VMulcaire Rd (No 1 Crescent Court)
p1789
sg18
I189473544
sg19
I0
sbag1
(g2
g3
Ntp1790
Rp1791
(dp1792
g7
I00
sg8
VONECST
p1793
sg10
V6350927368470663440
p1794
sg12
I1501839626023
sg13
I2147483646
sg14
I60789
sg15
I-31123008
sg16
VMulcaire Rd (No 1 Castle Pk)
p1795
sg18
I189478008
sg19
I0
sbag1
(g2
g3
Ntp1796
Rp1797
(dp1798
g7
I00
sg8
VOPJNCO
p1799
sg10
V6350927368470663442
p1800
sg12
I1501839626023
sg13
I2147483646
sg14
I60791
sg15
I-31141764
sg16
VMulcaire Rd (Opp Owenmore Dr)
p1801
sg18
I189466164
sg19
I0
sbag1
(g2
g3
Ntp1802
Rp1803
(dp1804
g7
I00
sg8
VCLNCEL
p1805
sg10
V6350927368470663435
p1806
sg12
I1501839626023
sg13
I2147483646
sg14
I60784
sg15
I-31064436
sg16
VO Connell St (HLB Chartered Accountants)
p1807
sg18
I189581904
sg19
I0
sbag1
(g2
g3
Ntp1808
Rp1809
(dp1810
g7
I00
sg8
VMNUMNT
p1811
sg10
V6350927368470663436
p1812
sg12
I1501839626023
sg13
I2147483646
sg14
I60785
sg15
I-31073652
sg16
VO Connell St (O Connell Monument)
p1813
sg18
I189572544
sg19
I0
sbag1
(g2
g3
Ntp1814
Rp1815
(dp1816
g7
I00
sg8
VMDLSCH
p1817
sg10
V6350927368470663437
p1818
sg12
I1501839626023
sg13
I2147483646
sg14
I60786
sg15
I-31084560
sg16
VO Connell Ave (Model School)
p1819
sg18
I189559152
sg19
I0
sbag1
(g2
g3
Ntp1820
Rp1821
(dp1822
g7
I00
sg8
VCRMOCN
p1823
sg10
V6350927368470663438
p1824
sg12
I1501839626023
sg13
I2147483646
sg14
I60787
sg15
I-31088196
sg16
VO Connell Ave (Carmel House)
p1825
sg18
I189548928
sg19
I0
sbag1
(g2
g3
Ntp1826
Rp1827
(dp1828
g7
I00
sg8
VMYOPBL
p1829
sg10
V6350927368470664189
p1830
sg12
I1501839626055
sg13
I2147483646
sg14
I60950
sg15
I-31121136
sg16
VMoylish Rd (Opp Community Centre)
p1831
sg18
I189638388
sg19
I0
sbag1
(g2
g3
Ntp1832
Rp1833
(dp1834
g7
I00
sg8
VSTNSSC
p1835
sg10
V6350927368470664175
p1836
sg12
I1501839626054
sg13
I2147483646
sg14
I60933
sg15
I-31203468
sg16
VSt Nessans School (Opp St Nessans School
p1837
sg18
I189472896
sg19
I0
sbag1
(g2
g3
Ntp1838
Rp1839
(dp1840
g7
I00
sg8
VOPRGHS
p1841
sg10
V6350927368470663431
p1842
sg12
I1501839626023
sg13
I2147483646
sg14
I60780
sg15
I-31159044
sg16
VSt Nessans Rd (Opp University Hospital)
p1843
sg18
I189487728
sg19
I0
sbag1
(g2
g3
Ntp1844
Rp1845
(dp1846
g7
I00
sg8
VSRDBNH
p1847
sg10
V6350927368470663434
p1848
sg12
I1501839626023
sg13
I2147483646
sg14
I60783
sg15
I-31058028
sg16
VSarsfield St (Debenhams)
p1849
sg18
I189590688
sg19
I0
sbag1
(g2
g3
Ntp1850
Rp1851
(dp1852
g7
I00
sg8
VKNKDNS
p1853
sg10
V6350927368470666664
p1854
sg12
I1501839626148
sg13
I2147483646
sg14
I33328
sg15
I-30972599
sg16
VKnockdonagh Cross (southbound)
p1855
sg18
I189855180
sg19
I0
sbag1
(g2
g3
Ntp1856
Rp1857
(dp1858
g7
I00
sg8
VCLNLRC
p1859
sg10
V6350927368470666389
p1860
sg12
I1501839626138
sg13
I2147483646
sg14
I13109
sg15
I-30961727
sg16
VO'Connors Cross
p1861
sg18
I189720612
sg19
I0
sbag1
(g2
g3
Ntp1862
Rp1863
(dp1864
g7
I00
sg8
VRXBRGS
p1865
sg10
V6350927368470664168
p1866
sg12
I1501839626054
sg13
I2147483646
sg14
I33306
sg15
I-31015908
sg16
VRoxboro Rd (Garda Station)
p1867
sg18
I189544824
sg19
I0
sbag1
(g2
g3
Ntp1868
Rp1869
(dp1870
g7
I00
sg8
VCNGHCR
p1871
sg10
V6350927368470664169
p1872
sg12
I1501839626054
sg13
I2147483646
sg14
I33619
sg15
I-31223340
sg16
VCoonagh Roundabout (Opp Hill Side)
p1873
sg18
I189625896
sg19
I0
sba.