(lp0
ccopy_reg
_reconstructor
p1
(cinc.baseclasses
StopPoint
p2
c__builtin__
object
p3
Ntp4
Rp5
(dp6
S'bearing'
p7
I250
sS'code'
p8
V606731
p9
sS'is_deleted'
p10
I00
sS'duid'
p11
V6350786630982910475
p12
sS'last_modification_timestamp'
p13
I1501839625709
sS'number'
p14
I1
sS'longitude'
p15
I-30970091
sS'long_name'
p16
VWestbury Est (Opp No 10 Vernon Cres)
p17
sS'stopDuid'
p18
V6350927368470663326
p19
sS'latitude'
p20
I189661252
sS'foo'
p21
I0
sS'type'
p22
I1
sbag1
(g2
g3
Ntp23
Rp24
(dp25
g7
I278
sg8
V606721
p26
sg10
I00
sg11
V6350786630982910465
p27
sg13
I1501839625709
sg14
I1
sg15
I-30957654
sg16
VWestbury (St Nicholas Church)
p28
sg18
V6350927368470663325
p29
sg20
I189657141
sg21
I0
sg22
I1
sbag1
(g2
g3
Ntp30
Rp31
(dp32
g7
I355
sg8
V606841
p33
sg10
I00
sg11
V6350786630982910585
p34
sg13
I1501839625710
sg14
I1
sg15
I-31104684
sg16
VShelbourne Rd (St Camillus Hosp)
p35
sg18
V6350927368470663337
p36
sg20
I189602895
sg21
I0
sg22
I1
sbag1
(g2
g3
Ntp37
Rp38
(dp39
g7
I5
sg8
V131091
p40
sg10
I00
sg11
V6350786630982434835
p41
sg13
I1501839625825
sg14
I1
sg15
I-30961712
sg16
VO Connors Cross
p42
sg18
V6350927368470666389
p43
sg20
I189720610
sg21
I0
sg22
I1
sbag1
(g2
g3
Ntp44
Rp45
(dp46
g7
I80
sg8
V311691
p47
sg10
I00
sg11
V6350786630982615435
p48
sg13
I1501839625871
sg14
I1
sg15
I-31171066
sg16
VFr Russell Rd (Rosebrook Estate)
p49
sg18
V6350927368470667610
p50
sg20
I189496960
sg21
I0
sg22
I1
sbag1
(g2
g3
Ntp51
Rp52
(dp53
g7
I45
sg8
V606821
p54
sg10
I00
sg11
V6350786630982910565
p55
sg13
I1501839625710
sg14
I1
sg15
I-31064177
sg16
VHenry Street (Dunnes Stores)
p56
sg18
V6350927368470663335
p57
sg20
I189589131
sg21
I0
sg22
I1
sbag1
(g2
g3
Ntp58
Rp59
(dp60
g7
I300
sg8
V606831
p61
sg10
I00
sg11
V6350786630982910575
p62
sg13
I1501839625710
sg14
I1
sg15
I-31074322
sg16
VEnnis Rd (Strand Hotel)
p63
sg18
V6350927368470663336
p64
sg20
I189598861
sg21
I0
sg22
I1
sbag1
(g2
g3
Ntp65
Rp66
(dp67
g7
I80
sg8
V311681
p68
sg10
I00
sg11
V6350786630982615425
p69
sg13
I1501839625871
sg14
I1
sg15
I-31201265
sg16
VFr Russell Road (Opp Russell House)
p70
sg18
V6350927368470667609
p71
sg20
I189491684
sg21
I0
sg22
I1
sbag1
(g2
g3
Ntp72
Rp73
(dp74
g7
I100
sg8
V606911
p75
sg10
I00
sg11
V6350786630982910655
p76
sg13
I1501839625710
sg14
I1
sg15
I-31177764
sg16
VCaherdavin (Christ the King Church)
p77
sg18
V6350927368470663344
p78
sg20
I189628599
sg21
I0
sg22
I1
sbag1
(g2
g3
Ntp79
Rp80
(dp81
g7
I100
sg8
V606901
p82
sg10
I00
sg11
V6350786630982910645
p83
sg13
I1501839625710
sg14
I1
sg15
I-31186476
sg16
VCaherdavin (Woodbine Ave)
p84
sg18
V6350927368470663343
p85
sg20
I189632019
sg21
I0
sg22
I1
sbag1
(g2
g3
Ntp86
Rp87
(dp88
g7
I45
sg8
V607521
p89
sg10
I00
sg11
V6350786630982911265
p90
sg13
I1501839625712
sg14
I1
sg15
I-31106928
sg16
VBallinacurra (No 5)
p91
sg18
V6350927368470663404
p92
sg20
I189527841
sg21
I0
sg22
I1
sbag1
(g2
g3
Ntp93
Rp94
(dp95
g7
I90
sg8
V607541
p96
sg10
I00
sg11
V6350786630982911285
p97
sg13
I1501839625712
sg14
I1
sg15
I-31075942
sg16
VChilders Rd (Lady of Lourdes Church)
p98
sg18
V6350927368470663406
p99
sg20
I189533353
sg21
I0
sg22
I1
sbag1
(g2
g3
Ntp100
Rp101
(dp102
g7
I270
sg8
V606871
p103
sg10
I00
sg11
V6350786630982910615
p104
sg13
I1501839625710
sg14
I1
sg15
I-31126809
sg16
VCratloe Rd (153 Cratloe Rd)
p105
sg18
V6350927368470663340
p106
sg20
I189624419
sg21
I0
sg22
I1
sbag1
(g2
g3
Ntp107
Rp108
(dp109
g7
I270
sg8
V606861
p110
sg10
I00
sg11
V6350786630982910605
p111
sg13
I1501839625710
sg14
I1
sg15
I-31111686
sg16
VCratloe Rd (Opp Thomond Park)
p112
sg18
V6350927368470663339
p113
sg20
I189623981
sg21
I0
sg22
I1
sbag1
(g2
g3
Ntp114
Rp115
(dp116
g7
I45
sg8
V606751
p117
sg10
I00
sg11
V6350786630982910495
p118
sg13
I1501839625831
sg14
I1
sg15
I-30998930
sg16
VCorbally Rd (St Munchins School)
p119
sg18
V6350927368470666459
p120
sg20
I189651553
sg21
I0
sg22
I1
sbag1
(g2
g3
Ntp121
Rp122
(dp123
g7
I200
sg8
V606741
p124
sg10
I00
sg11
V6350786630982910485
p125
sg13
I1501839625709
sg14
I1
sg15
I-30984877
sg16
VCorbally Rd (Opp Shannon Banks Est)
p126
sg18
V6350927368470663327
p127
sg20
I189659183
sg21
I0
sg22
I1
sbag1
(g2
g3
Ntp128
Rp129
(dp130
g7
I158
sg8
V607421
p131
sg10
I00
sg11
V6350786630982911165
p132
sg13
I1501839625712
sg14
I1
sg15
I-31107924
sg16
VBallynanty (Credit Union)
p133
sg18
V6350927368470663395
p134
sg20
I189632379
sg21
I0
sg22
I1
sbag1
(g2
g3
Ntp135
Rp136
(dp137
g7
I307
sg8
V608791
p138
sg10
I00
sg11
V6350786630982912535
p139
sg13
I1501839625720
sg14
I1
sg15
I-31047084
sg16
VThe Island Rd (Stores Coal Yard)
p140
sg18
V6350927368470663530
p141
sg20
I189619687
sg21
I0
sg22
I1
sbag1
(g2
g3
Ntp142
Rp143
(dp144
g7
I230
sg8
V608781
p145
sg10
I00
sg11
V6350786630982912525
p146
sg13
I1501839625720
sg14
I1
sg15
I-31038480
sg16
VThe Island Rd (Opp Island Rd Stores)
p147
sg18
V6350927368470663529
p148
sg20
I189610671
sg21
I0
sg22
I1
sbag1
(g2
g3
Ntp149
Rp150
(dp151
g7
I120
sg8
V577761
p152
sg10
I00
sg11
V6350786630982881505
p153
sg13
I1501839625612
sg14
I1
sg15
I-30943871
sg16
VClancy's (Limerick)
p154
sg18
V6350927368470661240
p155
sg20
I189550188
sg21
I0
sg22
I1
sbag1
(g2
g3
Ntp156
Rp157
(dp158
g7
I45
sg8
V333751
p159
sg10
I00
sg11
V6350786630982637495
p160
sg13
I1501839625805
sg14
I1
sg15
I-31137973
sg16
VBallycannon (Ballycannon Heights)
p161
sg18
V6350927368470665815
p162
sg20
I189731080
sg21
I0
sg22
I1
sbag1
(g2
g3
Ntp163
Rp164
(dp165
g7
I250
sg8
V333771
p166
sg10
I00
sg11
V6350786630982637515
p167
sg13
I1501839625806
sg14
I1
sg15
I-31010303
sg16
VParteen (Opp Bishop Murphy Park)
p168
sg18
V6350927368470665817
p169
sg20
I189709232
sg21
I0
sg22
I1
sbag1
(g2
g3
Ntp170
Rp171
(dp172
g7
I45
sg8
V608871
p173
sg10
I00
sg11
V6350786630982912615
p174
sg13
I1501839625720
sg14
I1
sg15
I-31046609
sg16
VThe Island Rd (No 12)
p175
sg18
V6350927368470663538
p176
sg20
I189619516
sg21
I0
sg22
I1
sbag1
(g2
g3
Ntp177
Rp178
(dp179
g7
I250
sg8
V333791
p180
sg10
I00
sg11
V6350786630982637535
p181
sg13
I1501839625806
sg14
I1
sg15
I-30987997
sg16
VParteen (Co-Op Superstones)
p182
sg18
V6350927368470665819
p183
sg20
I189713556
sg21
I0
sg22
I1
sbag1
(g2
g3
Ntp184
Rp185
(dp186
g7
I45
sg8
V333761
p187
sg10
I00
sg11
V6350786630982637505
p188
sg13
I1501839625806
sg14
I1
sg15
I-31026564
sg16
VParteen (R464 after Bridge)
p189
sg18
V6350927368470665816
p190
sg20
I189700819
sg21
I0
sg22
I1
sbag1
(g2
g3
Ntp191
Rp192
(dp193
g7
I70
sg8
V333781
p194
sg10
I00
sg11
V6350786630982637525
p195
sg13
I1501839625806
sg14
I1
sg15
I-30988605
sg16
VParteen (Opp Co-Op Superstores)
p196
sg18
V6350927368470665818
p197
sg20
I189713851
sg21
I0
sg22
I1
sbag1
(g2
g3
Ntp198
Rp199
(dp200
g7
I151
sg8
V608881
p201
sg10
I00
sg11
V6350786630982912625
p202
sg13
I1501839625720
sg14
I1
sg15
I-31037976
sg16
VThe Island Rd (Island Rd Stores)
p203
sg18
V6350927368470663539
p204
sg20
I189610563
sg21
I0
sg22
I1
sbag1
(g2
g3
Ntp205
Rp206
(dp207
g7
I260
sg8
V607691
p208
sg10
I00
sg11
V6350786630982911435
p209
sg13
I1501839625713
sg14
I1
sg15
I-30860136
sg16
VDublin Rd (Jct Golf Links Rd)
p210
sg18
V6350927368470663421
p211
sg20
I189599296
sg21
I0
sg22
I1
sbag1
(g2
g3
Ntp212
Rp213
(dp214
g7
I200
sg8
V607821
p215
sg10
I00
sg11
V6350786630982911565
p216
sg13
I1501839625871
sg14
I1
sg15
I-31181785
sg16
VRaheen (St Nessans Church)
p217
sg18
V6350927368470667615
p218
sg20
I189464248
sg21
I0
sg22
I1
sbag1
(g2
g3
Ntp219
Rp220
(dp221
g7
I177
sg8
V41
p222
sg10
I00
sg11
V6350786630982303785
p223
sg13
I1501839625865
sg14
I1
sg15
I-31012444
sg16
VLimerick Depot (Roxboro Rd)
p224
sg18
V6350927368470667412
p225
sg20
I189557130
sg21
I0
sg22
I1
sbag1
(g2
g3
Ntp226
Rp227
(dp228
g7
I270
sg8
V42
p229
sg10
I00
sg11
V6350786630982303786
p230
sg13
I1501839625865
sg14
I2
sg15
I-31012444
sg16
VLimerick Depot (Roxboro Rd)
p231
sg18
V6350927368470667412
p232
sg20
I189557130
sg21
I0
sg22
I1
sbag1
(g2
g3
Ntp233
Rp234
(dp235
g7
I225
sg8
V607791
p236
sg10
I00
sg11
V6350786630982911535
p237
sg13
I1501839625713
sg14
I1
sg15
I-31147380
sg16
VSt Nessans Rd (Opp Xtra Vision)
p238
sg18
V6350927368470663430
p239
sg20
I189502383
sg21
I0
sg22
I1
sbag1
(g2
g3
Ntp240
Rp241
(dp242
g7
I42
sg8
V607471
p243
sg10
I00
sg11
V6350786630982911215
p244
sg13
I1501839625712
sg14
I1
sg15
I-31173272
sg16
VSt Nessans Rd ( Meadowvale Junction)
p245
sg18
V6350927368470663399
p246
sg20
I189473568
sg21
I0
sg22
I1
sbag1
(g2
g3
Ntp247
Rp248
(dp249
g7
I200
sg8
V607811
p250
sg10
I00
sg11
V6350786630982911555
p251
sg13
I1501839625865
sg14
I1
sg15
I-31173462
sg16
VSt Nessans Rd (Avonmore Rd Junction)
p252
sg18
V6350927368470667403
p253
sg20
I189472870
sg21
I0
sg22
I1
sbag1
(g2
g3
Ntp254
Rp255
(dp256
g7
I20
sg8
V607801
p257
sg10
I00
sg11
V6350786630982911545
p258
sg13
I1501839625713
sg14
I1
sg15
I-31159044
sg16
VSt Nessans Rd (Opp University Hospital)
p259
sg18
V6350927368470663431
p260
sg20
I189487731
sg21
I0
sg22
I1
sbag1
(g2
g3
Ntp261
Rp262
(dp263
g7
I205
sg8
V607391
p264
sg10
I00
sg11
V6350786630982911135
p265
sg13
I1501839625712
sg14
I1
sg15
I-31122274
sg16
VBallynanty (Opp No 93 Shanabooly Rd)
p266
sg18
V6350927368470663392
p267
sg20
I189644011
sg21
I0
sg22
I1
sbag1
(g2
g3
Ntp268
Rp269
(dp270
g7
I340
sg8
V607371
p271
sg10
I00
sg11
V6350786630982911115
p272
sg13
I1501839625712
sg14
I1
sg15
I-31117252
sg16
VBallynanty (No 31 Shanabooley Rd)
p273
sg18
V6350927368470663390
p274
sg20
I189632253
sg21
I0
sg22
I1
sbag1
(g2
g3
Ntp275
Rp276
(dp277
g7
I200
sg8
V607841
p278
sg10
I00
sg11
V6350786630982911585
p279
sg13
I1501839625713
sg14
I1
sg15
I-31064436
sg16
VO Connell St (HLB Chartered Accountants)
p280
sg18
V6350927368470663435
p281
sg20
I189581907
sg21
I0
sg22
I1
sbag1
(g2
g3
Ntp282
Rp283
(dp284
g7
I45
sg8
V607961
p285
sg10
I00
sg11
V6350786630982911705
p286
sg13
I1501839625871
sg14
I1
sg15
I-31134076
sg16
VMulcaire Rd (Raheen Food Store)
p287
sg18
V6350927368470667619
p288
sg20
I189473241
sg21
I0
sg22
I1
sbag1
(g2
g3
Ntp289
Rp290
(dp291
g7
I291
sg8
V336191
p292
sg10
I00
sg11
V6350786630983302917
p293
sg13
I1501839625746
sg14
I1
sg15
I-31223333
sg16
VCoonagh Roundabout (Opp Hill Side)
p294
sg18
V6350927368470664169
p295
sg20
I189625892
sg21
I0
sg22
I1
sbag1
(g2
g3
Ntp296
Rp297
(dp298
g7
I190
sg8
V338421
p299
sg10
I00
sg11
V6350786630982642166
p300
sg13
I1501839625637
sg14
I1
sg15
I-30973291
sg16
VKnockdonagh Cross (northbound)
p301
sg18
V6350927368470662290
p302
sg20
I189854856
sg21
I0
sg22
I1
sbag1
(g2
g3
Ntp303
Rp304
(dp305
g7
I70
sg8
V607971
p306
sg10
I00
sg11
V6350786630982911715
p307
sg13
I1501839625871
sg14
I1
sg15
I-31122828
sg16
VMulcaire Rd (Opp No 1 Castle Pk)
p308
sg18
V6350927368470667620
p309
sg20
I189478335
sg21
I0
sg22
I1
sbag1
(g2
g3
Ntp310
Rp311
(dp312
g7
I290
sg8
V336201
p313
sg10
I00
sg11
V6350786630982639945
p314
sg13
I1501839625763
sg14
I1
sg15
I-31317816
sg16
VEnnis Rd (Two Mile Inn)
p315
sg18
V6350927368470664706
p316
sg20
I189647611
sg21
I0
sg22
I1
sbag1
(g2
g3
Ntp317
Rp318
(dp319
g7
I147
sg8
V345971
p320
sg10
I00
sg11
V6350786630982649715
p321
sg13
I1501839625806
sg14
I1
sg15
I-30793932
sg16
VClonlara (Opp School)
p322
sg18
V6350927368470665828
p323
sg20
I189808031
sg21
I0
sg22
I1
sbag1
(g2
g3
Ntp324
Rp325
(dp326
g7
I90
sg8
V635032
p327
sg10
I00
sg11
V6350786630982938776
p328
sg13
I1501839625544
sg14
I2
sg15
I-31048164
sg16
VLimerick (Bus Station)
p329
sg18
V6350927368470659562
p330
sg20
I189570754
sg21
I0
sg22
I1
sbag1
(g2
g3
Ntp331
Rp332
(dp333
g7
I202
sg8
V635031
p334
sg10
I00
sg11
V6350786630982938775
p335
sg13
I1501839625544
sg14
I1
sg15
I-31048164
sg16
VLimerick (Bus Station)
p336
sg18
V6350927368470659562
p337
sg20
I189570754
sg21
I0
sg22
I1
sbag1
(g2
g3
Ntp338
Rp339
(dp340
g7
I323
sg8
V336781
p341
sg10
I00
sg11
V6350786630982640525
p342
sg13
I1501839625601
sg14
I1
sg15
I-30791670
sg16
VClonlara (Opp Stritches Pub)
p343
sg18
V6350927368470661023
p344
sg20
I189806171
sg21
I0
sg22
I1
sbag1
(g2
g3
Ntp345
Rp346
(dp347
g7
I189
sg8
V336631
p348
sg10
I00
sg11
V6350786630982640375
p349
sg13
I1501839625768
sg14
I1
sg15
I-31366181
sg16
VEnnis Rd (Opp Radisson Hotel)
p350
sg18
V6350927368470664848
p351
sg20
I189655810
sg21
I0
sg22
I1
sbag1
(g2
g3
Ntp352
Rp353
(dp354
g7
I180
sg8
V535311
p355
sg10
I00
sg11
V6350786630982839055
p356
sg13
I1501839625864
sg14
I1
sg15
I-31086792
sg16
VO'Connell Ave (Limerick)
p357
sg18
V6350927368470667376
p358
sg20
I189554076
sg21
I0
sg22
I1
sbag1
(g2
g3
Ntp359
Rp360
(dp361
g7
I90
sg8
V535301
p362
sg10
I00
sg11
V6350786630982839045
p363
sg13
I1501839625864
sg14
I1
sg15
I-30787776
sg16
VBarry's Shop
p364
sg18
V6350927368470667375
p365
sg20
I189804312
sg21
I0
sg22
I1
sbag1
(g2
g3
Ntp366
Rp367
(dp368
g7
I120
sg8
V607121
p369
sg10
I00
sg11
V6350786630982910865
p370
sg13
I1501839625711
sg14
I1
sg15
I-31030517
sg16
VLower Roxboro Rd (Opp CBS School)
p371
sg18
V6350927368470663365
p372
sg20
I189573361
sg21
I0
sg22
I1
sbag1
(g2
g3
Ntp373
Rp374
(dp375
g7
I10
sg8
V606601
p376
sg10
I00
sg11
V6350786630982910345
p377
sg13
I1501839625709
sg14
I1
sg15
I-31019580
sg16
VCorbally Rd (Opp Topaz Station)
p378
sg18
V6350927368470663313
p379
sg20
I189615783
sg21
I0
sg22
I1
sbag1
(g2
g3
Ntp380
Rp381
(dp382
g7
I135
sg8
V607111
p383
sg10
I00
sg11
V6350786630982910855
p384
sg13
I1501839625711
sg14
I1
sg15
I-31050349
sg16
VWilliam St (Superdrug Pharmacy)
p385
sg18
V6350927368470663364
p386
sg20
I189587649
sg21
I0
sg22
I1
sbag1
(g2
g3
Ntp387
Rp388
(dp389
g7
I140
sg8
V607131
p390
sg10
I00
sg11
V6350786630982910875
p391
sg13
I1501839625711
sg14
I1
sg15
I-31025593
sg16
VRoxboro Rd (St Annes Day Hosp)
p392
sg18
V6350927368470663366
p393
sg20
I189566608
sg21
I0
sg22
I1
sbag1
(g2
g3
Ntp394
Rp395
(dp396
g7
I160
sg8
V607141
p397
sg10
I00
sg11
V6350786630982910885
p398
sg13
I1501839625711
sg14
I1
sg15
I-31018968
sg16
VRoxboro Rd (No 13)
p399
sg18
V6350927368470663367
p400
sg20
I189551451
sg21
I0
sg22
I1
sbag1
(g2
g3
Ntp401
Rp402
(dp403
g7
I215
sg8
V607161
p404
sg10
I00
sg11
V6350786630982910905
p405
sg13
I1501839625711
sg14
I1
sg15
I-31035312
sg16
VJanesboro (No 31 Colbert Ave)
p406
sg18
V6350927368470663369
p407
sg20
I189544575
sg21
I0
sg22
I1
sbag1
(g2
g3
Ntp408
Rp409
(dp410
g7
I190
sg8
V606791
p411
sg10
I00
sg11
V6350786630982910535
p412
sg13
I1501839625710
sg14
I1
sg15
I-31019271
sg16
VCorbally Rd (Goosers Corner)
p413
sg18
V6350927368470663332
p414
sg20
I189616276
sg21
I0
sg22
I1
sbag1
(g2
g3
Ntp415
Rp416
(dp417
g7
I270
sg8
V607151
p418
sg10
I00
sg11
V6350786630982910895
p419
sg13
I1501839625711
sg14
I1
sg15
I-31028541
sg16
VJanesboro (No 20 Marian Ave)
p420
sg18
V6350927368470663368
p421
sg20
I189550109
sg21
I0
sg22
I1
sbag1
(g2
g3
Ntp422
Rp423
(dp424
g7
I250
sg8
V606801
p425
sg10
I00
sg11
V6350786630982910545
p426
sg13
I1501839625710
sg14
I1
sg15
I-31028940
sg16
VAthlunkard St (No 29)
p427
sg18
V6350927368470663333
p428
sg20
I189608871
sg21
I0
sg22
I1
sbag1
(g2
g3
Ntp429
Rp430
(dp431
g7
I250
sg8
V606811
p432
sg10
I00
sg11
V6350786630982910555
p433
sg13
I1501839625710
sg14
I1
sg15
I-31042828
sg16
VAthlunkard St (Opp St Marys Cathedral)
p434
sg18
V6350927368470663334
p435
sg20
I189603873
sg21
I0
sg22
I1
sbag1
(g2
g3
Ntp436
Rp437
(dp438
g7
I15
sg8
V608021
p439
sg10
I00
sg11
V6350786630982911765
p440
sg13
I1501839625714
sg14
I1
sg15
I-31083157
sg16
VO Connell Ave (Egleston Photography)
p441
sg18
V6350927368470663453
p442
sg20
I189561680
sg21
I0
sg22
I1
sbag1
(g2
g3
Ntp443
Rp444
(dp445
g7
I15
sg8
V608031
p446
sg10
I00
sg11
V6350786630982911775
p447
sg13
I1501839625871
sg14
I1
sg15
I-31075344
sg16
VO Connell St Crescent (Tutorial College)
p448
sg18
V6350927368470667621
p449
sg20
I189571791
sg21
I0
sg22
I1
sbag1
(g2
g3
Ntp450
Rp451
(dp452
g7
I200
sg8
V608001
p453
sg10
I00
sg11
V6350786630982911745
p454
sg13
I1501839625714
sg14
I1
sg15
I-31092638
sg16
VPunches Cross (Opp Punches Hotel)
p455
sg18
V6350927368470663451
p456
sg20
I189538281
sg21
I0
sg22
I1
sbag1
(g2
g3
Ntp457
Rp458
(dp459
g7
I10
sg8
V608011
p460
sg10
I00
sg11
V6350786630982911755
p461
sg13
I1501839625714
sg14
I1
sg15
I-31087616
sg16
VO Connell Ave (Opp Ardglass)
p462
sg18
V6350927368470663452
p463
sg20
I189551906
sg21
I0
sg22
I1
sbag1
(g2
g3
Ntp464
Rp465
(dp466
g7
I110
sg8
V608051
p467
sg10
I00
sg11
V6350786630982911795
p468
sg13
I1501839625871
sg14
I1
sg15
I-31145366
sg16
VAvonmore Rd (Opp Eircom Building)
p469
sg18
V6350927368470667622
p470
sg20
I189464524
sg21
I0
sg22
I1
sbag1
(g2
g3
Ntp471
Rp472
(dp473
g7
I190
sg8
V608061
p474
sg10
I00
sg11
V6350786630982911805
p475
sg13
I1501839625714
sg14
I1
sg15
I-31062363
sg16
VEdward St (Jctn of Wolfe Tone St)
p476
sg18
V6350927368470663457
p477
sg20
I189560400
sg21
I0
sg22
I1
sbag1
(g2
g3
Ntp478
Rp479
(dp480
g7
I343
sg8
V608891
p481
sg10
I00
sg11
V6350786630982912635
p482
sg13
I1501839625720
sg14
I1
sg15
I-31061952
sg16
VClancy Strand (Opp Treaty Stone)
p483
sg18
V6350927368470663540
p484
sg20
I189611319
sg21
I0
sg22
I1
sbag1
(g2
g3
Ntp485
Rp486
(dp487
g7
I272
sg8
V333801
p488
sg10
I00
sg11
V6350786630982637545
p489
sg13
I1501839625806
sg14
I1
sg15
I-30998467
sg16
VArdnacrusha (Opp Lakyle Heights)
p490
sg18
V6350927368470665820
p491
sg20
I189749800
sg21
I0
sg22
I1
sbag1
(g2
g3
Ntp492
Rp493
(dp494
g7
I300
sg8
V606891
p495
sg10
I00
sg11
V6350786630982910635
p496
sg13
I1501839625710
sg14
I1
sg15
I-31168373
sg16
VOld Cratloe Rd (201 Cratloe Rd)
p497
sg18
V6350927368470663342
p498
sg20
I189639746
sg21
I0
sg22
I1
sbag1
(g2
g3
Ntp499
Rp500
(dp501
g7
I340
sg8
V608941
p502
sg10
I00
sg11
V6350786630982912685
p503
sg13
I1501839625721
sg14
I1
sg15
I-31098935
sg16
VKnockalisheen Rd (Moyross Est Entrance)
p504
sg18
V6350927368470663545
p505
sg20
I189647336
sg21
I0
sg22
I1
sbag1
(g2
g3
Ntp506
Rp507
(dp508
g7
I340
sg8
V608951
p509
sg10
I00
sg11
V6350786630982912695
p510
sg13
I1501839625721
sg14
I1
sg15
I-31108626
sg16
VKnockalisheen Rd (Moyross Enterprise Cen
p511
sg18
V6350927368470663546
p512
sg20
I189655535
sg21
I0
sg22
I1
sbag1
(g2
g3
Ntp513
Rp514
(dp515
g7
I170
sg8
V608861
p516
sg10
I00
sg11
V6350786630982912605
p517
sg13
I1501839625720
sg14
I1
sg15
I-31053433
sg16
VSt Itas St (No 14)
p518
sg18
V6350927368470663537
p519
sg20
I189623163
sg21
I0
sg22
I1
sbag1
(g2
g3
Ntp520
Rp521
(dp522
g7
I80
sg8
V333811
p523
sg10
I00
sg11
V6350786630982637555
p524
sg13
I1501839625806
sg14
I1
sg15
I-30997509
sg16
VArdnacrusha (Lakyle Heights)
p525
sg18
V6350927368470665821
p526
sg20
I189750205
sg21
I0
sg22
I1
sbag1
(g2
g3
Ntp527
Rp528
(dp529
g7
I170
sg8
V608851
p530
sg10
I00
sg11
V6350786630982912595
p531
sg13
I1501839625720
sg14
I1
sg15
I-31057367
sg16
VSt Itas St (No 58)
p532
sg18
V6350927368470663536
p533
sg20
I189629313
sg21
I0
sg22
I1
sbag1
(g2
g3
Ntp534
Rp535
(dp536
g7
I220
sg8
V577751
p537
sg10
I00
sg11
V6350786630982881495
p538
sg13
I1501839625612
sg14
I1
sg15
I-31102594
sg16
VRehab (Raheen)
p539
sg18
V6350927368470661239
p540
sg20
I189470415
sg21
I0
sg22
I1
sbag1
(g2
g3
Ntp541
Rp542
(dp543
g7
I123
sg8
V608841
p544
sg10
I00
sg11
V6350786630982912585
p545
sg13
I1501839625720
sg14
I1
sg15
I-31059095
sg16
VSt Itas St (No 82)
p546
sg18
V6350927368470663535
p547
sg20
I189633411
sg21
I0
sg22
I1
sbag1
(g2
g3
Ntp548
Rp549
(dp550
g7
I232
sg8
V333821
p551
sg10
I00
sg11
V6350786630982637565
p552
sg13
I1501839625806
sg14
I1
sg15
I-31137915
sg16
VBallycannon (Opp Ballycannon Heights)
p553
sg18
V6350927368470665822
p554
sg20
I189730483
sg21
I0
sg22
I1
sbag1
(g2
g3
Ntp555
Rp556
(dp557
g7
I76
sg8
V608081
p558
sg10
I00
sg11
V6350786630982911825
p559
sg13
I1501839625714
sg14
I1
sg15
I-31072111
sg16
VByrne Ave (Jctn of Byrne Ave)
p560
sg18
V6350927368470663459
p561
sg20
I189550314
sg21
I0
sg22
I1
sbag1
(g2
g3
Ntp562
Rp563
(dp564
g7
I308
sg8
V637081
p565
sg10
I00
sg11
V6350786630982940825
p566
sg13
I1501839625616
sg14
I1
sg15
I-31137851
sg16
VLimerick Institute of Technology
p567
sg18
V6350927368470661349
p568
sg20
I189627660
sg21
I0
sg22
I1
sbag1
(g2
g3
Ntp569
Rp570
(dp571
g7
I45
sg8
V602511
p572
sg10
I00
sg11
V6350786630982906255
p573
sg13
I1501839625865
sg14
I1
sg15
I-31064901
sg16
VLimerick (Henry St)
p574
sg18
V6350927368470667399
p575
sg20
I189588640
sg21
I0
sg22
I1
sbag1
(g2
g3
Ntp576
Rp577
(dp578
g7
I355
sg8
V332891
p579
sg10
I00
sg11
V6350786630982636635
p580
sg13
I1501839625860
sg14
I1
sg15
I-30868322
sg16
VBrookfield (Expressway stop)
p581
sg18
V6350927368470667284
p582
sg20
I189565481
sg21
I0
sg22
I1
sbag1
(g2
g3
Ntp583
Rp584
(dp585
g7
I180
sg8
V608741
p586
sg10
I00
sg11
V6350786630982912485
p587
sg13
I1501839625846
sg14
I1
sg15
I-31048958
sg16
VHyde Rd Limerick (No 167)
p588
sg18
V6350927368470666986
p589
sg20
I189558719
sg21
I0
sg22
I1
sbag1
(g2
g3
Ntp590
Rp591
(dp592
g7
I100
sg8
V608721
p593
sg10
I00
sg11
V6350786630982912465
p594
sg13
I1501839625719
sg14
I1
sg15
I-31114616
sg16
VMoyross Main Rd (The Rock)
p595
sg18
V6350927368470663523
p596
sg20
I189649251
sg21
I0
sg22
I1
sbag1
(g2
g3
Ntp597
Rp598
(dp599
g7
I100
sg8
V608711
p600
sg10
I00
sg11
V6350786630982912455
p601
sg13
I1501839625719
sg14
I1
sg15
I-31132822
sg16
VMoyross (Community Centre)
p602
sg18
V6350927368470663522
p603
sg20
I189653164
sg21
I0
sg22
I1
sbag1
(g2
g3
Ntp604
Rp605
(dp606
g7
I71
sg8
V608681
p607
sg10
I00
sg11
V6350786630982912425
p608
sg13
I1501839625719
sg14
I1
sg15
I-31160160
sg16
VPineview (Delmege Gardens)
p609
sg18
V6350927368470663519
p610
sg20
I189655959
sg21
I0
sg22
I1
sbag1
(g2
g3
Ntp611
Rp612
(dp613
g7
I71
sg8
V608731
p614
sg10
I00
sg11
V6350786630982912475
p615
sg13
I1501839625719
sg14
I1
sg15
I-31101876
sg16
VMoyross (Watchhouse Cross Library)
p616
sg18
V6350927368470663524
p617
sg20
I189645145
sg21
I0
sg22
I1
sbag1
(g2
g3
Ntp618
Rp619
(dp620
g7
I290
sg8
V608701
p621
sg10
I00
sg11
V6350786630982912445
p622
sg13
I1501839625719
sg14
I1
sg15
I-31141239
sg16
VCraeval Pk (Opp Turning Circle)
p623
sg18
V6350927368470663521
p624
sg20
I189654764
sg21
I0
sg22
I1
sbag1
(g2
g3
Ntp625
Rp626
(dp627
g7
I90
sg8
V608691
p628
sg10
I00
sg11
V6350786630982912435
p629
sg13
I1501839625719
sg14
I1
sg15
I-31154627
sg16
VPineview Gardens
p630
sg18
V6350927368470663520
p631
sg20
I189657855
sg21
I0
sg22
I1
sbag1
(g2
g3
Ntp632
Rp633
(dp634
g7
I45
sg8
V607781
p635
sg10
I00
sg11
V6350786630982911525
p636
sg13
I1501839625713
sg14
I1
sg15
I-31132879
sg16
VSt Nessans Rd (Opp Crescent SC)
p637
sg18
V6350927368470663429
p638
sg20
I189511084
sg21
I0
sg22
I1
sbag1
(g2
g3
Ntp639
Rp640
(dp641
g7
I100
sg8
V608531
p642
sg10
I00
sg11
V6350786630982912275
p643
sg13
I1501839625718
sg14
I1
sg15
I-30977338
sg16
VMulgrave St (St Patricks Rd)
p644
sg18
V6350927368470663504
p645
sg20
I189560845
sg21
I0
sg22
I1
sbag1
(g2
g3
Ntp646
Rp647
(dp648
g7
I100
sg8
V608521
p649
sg10
I00
sg11
V6350786630982912265
p650
sg13
I1501839625718
sg14
I1
sg15
I-30986021
sg16
VMulgrave St (Ger Malones)
p651
sg18
V6350927368470663503
p652
sg20
I189563552
sg21
I0
sg22
I1
sbag1
(g2
g3
Ntp653
Rp654
(dp655
g7
I242
sg8
V608561
p656
sg10
I00
sg11
V6350786630982912305
p657
sg13
I1501839625718
sg14
I1
sg15
I-30771241
sg16
VPlassey Pk Rd (Op National Tech Pk)
p658
sg18
V6350927368470663507
p659
sg20
I189624401
sg21
I0
sg22
I1
sbag1
(g2
g3
Ntp660
Rp661
(dp662
g7
I290
sg8
V608571
p663
sg10
I00
sg11
V6350786630982912315
p664
sg13
I1501839625719
sg14
I1
sg15
I-30970512
sg16
VBallysimon Rd (Woodlawn Park)
p665
sg18
V6350927368470663508
p666
sg20
I189558543
sg21
I0
sg22
I1
sbag1
(g2
g3
Ntp667
Rp668
(dp669
g7
I170
sg8
V608491
p670
sg10
I00
sg11
V6350786630982912235
p671
sg13
I1501839625718
sg14
I1
sg15
I-30967416
sg16
VSt Patricks Rd (Op St Brigids Church)
p672
sg18
V6350927368470663500
p673
sg20
I189573303
sg21
I0
sg22
I1
sbag1
(g2
g3
Ntp674
Rp675
(dp676
g7
I258
sg8
V608481
p677
sg10
I00
sg11
V6350786630982912225
p678
sg13
I1501839625718
sg14
I1
sg15
I-30976715
sg16
VWell Field (Opp Richmond RFC Pitch)
p679
sg18
V6350927368470663499
p680
sg20
I189581178
sg21
I0
sg22
I1
sbag1
(g2
g3
Ntp681
Rp682
(dp683
g7
I100
sg8
V608511
p684
sg10
I00
sg11
V6350786630982912255
p685
sg13
I1501839625718
sg14
I1
sg15
I-30995388
sg16
VMulgrave St (Brannigans Pub)
p686
sg18
V6350927368470663502
p687
sg20
I189566480
sg21
I0
sg22
I1
sbag1
(g2
g3
Ntp688
Rp689
(dp690
g7
I100
sg8
V608501
p691
sg10
I00
sg11
V6350786630982912245
p692
sg13
I1501839625718
sg14
I1
sg15
I-31011843
sg16
VMulgrave St (Glynns Shop)
p693
sg18
V6350927368470663501
p694
sg20
I189571698
sg21
I0
sg22
I1
sbag1
(g2
g3
Ntp695
Rp696
(dp697
g7
I200
sg8
V608111
p698
sg10
I00
sg11
V6350786630982911855
p699
sg13
I1501839625714
sg14
I1
sg15
I-31068216
sg16
VHyde Ave Limerick (Opp No 39)
p700
sg18
V6350927368470663462
p701
sg20
I189534747
sg21
I0
sg22
I1
sbag1
(g2
g3
Ntp702
Rp703
(dp704
g7
I190
sg8
V608101
p705
sg10
I00
sg11
V6350786630982911845
p706
sg13
I1501839625714
sg14
I1
sg15
I-31061772
sg16
VHyde Ave Limerick (No 6)
p707
sg18
V6350927368470663461
p708
sg20
I189539463
sg21
I0
sg22
I1
sbag1
(g2
g3
Ntp709
Rp710
(dp711
g7
I45
sg8
V608451
p712
sg10
I00
sg11
V6350786630982912195
p713
sg13
I1501839625718
sg14
I1
sg15
I-31010580
sg16
VMarkets Field Terrace (Opp No 9)
p714
sg18
V6350927368470663496
p715
sg20
I189574671
sg21
I0
sg22
I1
sbag1
(g2
g3
Ntp716
Rp717
(dp718
g7
I80
sg8
V608471
p719
sg10
I00
sg11
V6350786630982912215
p720
sg13
I1501839625718
sg14
I1
sg15
I-30989718
sg16
VSth Claughan Rd (Opp No 25)
p721
sg18
V6350927368470663498
p722
sg20
I189580999
sg21
I0
sg22
I1
sbag1
(g2
g3
Ntp723
Rp724
(dp725
g7
I296
sg8
V608191
p726
sg10
I00
sg11
V6350786630982911935
p727
sg13
I1501839625715
sg14
I1
sg15
I-31054512
sg16
VUpper Mallow St (Peoples Park)
p728
sg18
V6350927368470663470
p729
sg20
I189570592
sg21
I0
sg22
I1
sbag1
(g2
g3
Ntp730
Rp731
(dp732
g7
I85
sg8
V351071
p733
sg10
I00
sg11
V6350786630982654815
p734
sg13
I1501839625605
sg14
I1
sg15
I-30812803
sg16
VDublin Rd (Hurlers Pub)
p735
sg18
V6350927368470661125
p736
sg20
I189603310
sg21
I0
sg22
I1
sbag1
(g2
g3
Ntp737
Rp738
(dp739
g7
I270
sg8
V608141
p740
sg10
I00
sg11
V6350786630982911885
p741
sg13
I1501839625714
sg14
I1
sg15
I-31169412
sg16
VRaheen Ind Est (FAS Office)
p742
sg18
V6350927368470663465
p743
sg20
I189448563
sg21
I0
sg22
I1
sbag1
(g2
g3
Ntp744
Rp745
(dp746
g7
I90
sg8
V608151
p747
sg10
I00
sg11
V6350786630982911895
p748
sg13
I1501839625714
sg14
I1
sg15
I-31069194
sg16
VHyde Rd (No 39)
p749
sg18
V6350927368470663466
p750
sg20
I189534491
sg21
I0
sg22
I1
sbag1
(g2
g3
Ntp751
Rp752
(dp753
g7
I77
sg8
V607241
p754
sg10
I00
sg11
V6350786630982910985
p755
sg13
I1501839625711
sg14
I1
sg15
I-31011365
sg16
VCollins Ave (Jctn with Synge Rd)
p756
sg18
V6350927368470663377
p757
sg20
I189530071
sg21
I0
sg22
I1
sbag1
(g2
g3
Ntp758
Rp759
(dp760
g7
I30
sg8
V607261
p761
sg10
I00
sg11
V6350786630982911005
p762
sg13
I1501839625711
sg14
I1
sg15
I-31039128
sg16
VColbert Ave (No 70)
p763
sg18
V6350927368470663379
p764
sg20
I189540435
sg21
I0
sg22
I1
sbag1
(g2
g3
Ntp765
Rp766
(dp767
g7
I30
sg8
V607271
p768
sg10
I00
sg11
V6350786630982911015
p769
sg13
I1501839625711
sg14
I1
sg15
I-31035312
sg16
VColbert Ave (No 30)
p770
sg18
V6350927368470663380
p771
sg20
I189544899
sg21
I0
sg22
I1
sbag1
(g2
g3
Ntp772
Rp773
(dp774
g7
I90
sg8
V607281
p775
sg10
I00
sg11
V6350786630982911025
p776
sg13
I1501839625711
sg14
I1
sg15
I-31028563
sg16
VJanesboro (13 Marian Ave)
p777
sg18
V6350927368470663381
p778
sg20
I189550229
sg21
I0
sg22
I1
sbag1
(g2
g3
Ntp779
Rp780
(dp781
g7
I45
sg8
V335471
p782
sg10
I00
sg11
V6350786630982639215
p783
sg13
I1501839625773
sg14
I1
sg15
I-31434991
sg16
VClarina (Barber Shop)
p784
sg18
V6350927368470665004
p785
sg20
I189476175
sg21
I0
sg22
I1
sbag1
(g2
g3
Ntp786
Rp787
(dp788
g7
I90
sg8
V335461
p789
sg10
I00
sg11
V6350786630982639205
p790
sg13
I1501839625773
sg14
I1
sg15
I-31294267
sg16
VMungret (Opp St Oliver Plunket Church)
p791
sg18
V6350927368470665003
p792
sg20
I189488862
sg21
I0
sg22
I1
sbag1
(g2
g3
Ntp793
Rp794
(dp795
g7
I340
sg8
V607291
p796
sg10
I00
sg11
V6350786630982911035
p797
sg13
I1501839625711
sg14
I1
sg15
I-31020228
sg16
VRoxboro Rd (Tierneys Shop)
p798
sg18
V6350927368470663382
p799
sg20
I189552855
sg21
I0
sg22
I1
sbag1
(g2
g3
Ntp800
Rp801
(dp802
g7
I170
sg8
V606981
p803
sg10
I00
sg11
V6350786630982910725
p804
sg13
I1501839625710
sg14
I1
sg15
I-31060764
sg16
VClancy Strand (Treaty Stone)
p805
sg18
V6350927368470663351
p806
sg20
I189609663
sg21
I0
sg22
I1
sbag1
(g2
g3
Ntp807
Rp808
(dp809
g7
I270
sg8
V607011
p810
sg10
I00
sg11
V6350786630982910755
p811
sg13
I1501839625711
sg14
I1
sg15
I-31121604
sg16
VEnnis Rd (JFK School)
p812
sg18
V6350927368470663354
p813
sg20
I189600627
sg21
I0
sg22
I1
sbag1
(g2
g3
Ntp814
Rp815
(dp816
g7
I180
sg8
V607191
p817
sg10
I00
sg11
V6350786630982910935
p818
sg13
I1501839625711
sg14
I1
sg15
I-31029408
sg16
VCarew Pk (Star Court)
p819
sg18
V6350927368470663372
p820
sg20
I189520167
sg21
I0
sg22
I1
sbag1
(g2
g3
Ntp821
Rp822
(dp823
g7
I200
sg8
V607171
p824
sg10
I00
sg11
V6350786630982910915
p825
sg13
I1501839625711
sg14
I1
sg15
I-31032435
sg16
VJanesboro (No 38 O Donoghue Ave)
p826
sg18
V6350927368470663370
p827
sg20
I189537991
sg21
I0
sg22
I1
sbag1
(g2
g3
Ntp828
Rp829
(dp830
g7
I190
sg8
V607071
p831
sg10
I00
sg11
V6350786630982910815
p832
sg13
I1501839625871
sg14
I1
sg15
I-31124939
sg16
VBallinacurra Road (At Flyover)
p833
sg18
V6350927368470667614
p834
sg20
I189518263
sg21
I0
sg22
I1
sbag1
(g2
g3
Ntp835
Rp836
(dp837
g7
I90
sg8
V607101
p838
sg10
I00
sg11
V6350786630982910845
p839
sg13
I1501839625711
sg14
I1
sg15
I-31101552
sg16
VEnnis Rd (Moravan Hse Union Cross)
p840
sg18
V6350927368470663363
p841
sg20
I189601275
sg21
I0
sg22
I1
sbag1
(g2
g3
Ntp842
Rp843
(dp844
g7
I270
sg8
V607001
p845
sg10
I00
sg11
V6350786630982910745
p846
sg13
I1501839625711
sg14
I1
sg15
I-31106700
sg16
VEnnis Rd (Union Cross)
p847
sg18
V6350927368470663353
p848
sg20
I189600879
sg21
I0
sg22
I1
sbag1
(g2
g3
Ntp849
Rp850
(dp851
g7
I200
sg8
V606991
p852
sg10
I00
sg11
V6350786630982910735
p853
sg13
I1501839625710
sg14
I1
sg15
I-31070412
sg16
VClancy Strand (Sarsfield Bridge)
p854
sg18
V6350927368470663352
p855
sg20
I189598035
sg21
I0
sg22
I1
sbag1
(g2
g3
Ntp856
Rp857
(dp858
g7
I290
sg8
V608591
p859
sg10
I00
sg11
V6350786630982912335
p860
sg13
I1501839625719
sg14
I1
sg15
I-30995496
sg16
VMulgrave St (Munster Fair Tavern)
p861
sg18
V6350927368470663510
p862
sg20
I189566355
sg21
I0
sg22
I1
sbag1
(g2
g3
Ntp863
Rp864
(dp865
g7
I290
sg8
V608581
p866
sg10
I00
sg11
V6350786630982912325
p867
sg13
I1501839625719
sg14
I1
sg15
I-30981960
sg16
VBallysimon Rd (Tubs & Tiles)
p868
sg18
V6350927368470663509
p869
sg20
I189562180
sg21
I0
sg22
I1
sbag1
(g2
g3
Ntp870
Rp871
(dp872
g7
I90
sg8
V608611
p873
sg10
I00
sg11
V6350786630982912355
p874
sg13
I1501839625871
sg14
I1
sg15
I-31022064
sg16
VNew Rd (S Coffee)
p875
sg18
V6350927368470667624
p876
sg20
I189589863
sg21
I0
sg22
I1
sbag1
(g2
g3
Ntp877
Rp878
(dp879
g7
I90
sg8
V608631
p880
sg10
I00
sg11
V6350786630982912375
p881
sg13
I1501839625871
sg14
I1
sg15
I-30967740
sg16
VClare St (Twin Oaks B&B)
p882
sg18
V6350927368470667626
p883
sg20
I189591015
sg21
I0
sg22
I1
sbag1
(g2
g3
Ntp884
Rp885
(dp886
g7
I315
sg8
V608671
p887
sg10
I00
sg11
V6350786630982912415
p888
sg13
I1501839625719
sg14
I1
sg15
I-30949740
sg16
VKilmallock Rd (St Endas School Stop)
p889
sg18
V6350927368470663518
p890
sg20
I189534063
sg21
I0
sg22
I1
sbag1
(g2
g3
Ntp891
Rp892
(dp893
g7
I241
sg8
V608621
p894
sg10
I00
sg11
V6350786630982912365
p895
sg13
I1501839625871
sg14
I1
sg15
I-31007689
sg16
VPennywell Rd (Opp Laundrette)
p896
sg18
V6350927368470667625
p897
sg20
I189591333
sg21
I0
sg22
I1
sbag1
(g2
g3
Ntp898
Rp899
(dp900
g7
I280
sg8
V608641
p901
sg10
I00
sg11
V6350786630982912385
p902
sg13
I1501839625871
sg14
I1
sg15
I-30971268
sg16
VDublin Rd (Frank Hogan Motors)
p903
sg18
V6350927368470667627
p904
sg20
I189591267
sg21
I0
sg22
I1
sbag1
(g2
g3
Ntp905
Rp906
(dp907
g7
I135
sg8
V608661
p908
sg10
I00
sg11
V6350786630982912405
p909
sg13
I1501839625719
sg14
I1
sg15
I-30940236
sg16
VKilmallock Rd (Georgian Village)
p910
sg18
V6350927368470663517
p911
sg20
I189528843
sg21
I0
sg22
I1
sbag1
(g2
g3
Ntp912
Rp913
(dp914
g7
I290
sg8
V608601
p915
sg10
I00
sg11
V6350786630982912345
p916
sg13
I1501839625719
sg14
I1
sg15
I-31009716
sg16
VMulgrave St (St Josephs Hosp)
p917
sg18
V6350927368470663511
p918
sg20
I189570855
sg21
I0
sg22
I1
sbag1
(g2
g3
Ntp919
Rp920
(dp921
g7
I60
sg8
V608551
p922
sg10
I00
sg11
V6350786630982912295
p923
sg13
I1501839625718
sg14
I1
sg15
I-30774594
sg16
VPlassey Pk Rd (National Tech Pk)
p924
sg18
V6350927368470663506
p925
sg20
I189623468
sg21
I0
sg22
I1
sbag1
(g2
g3
Ntp926
Rp927
(dp928
g7
I80
sg8
V608461
p929
sg10
I00
sg11
V6350786630982912205
p930
sg13
I1501839625718
sg14
I1
sg15
I-31002256
sg16
VSth Claughan Rd (Opp No 7)
p931
sg18
V6350927368470663497
p932
sg20
I189579422
sg21
I0
sg22
I1
sbag1
(g2
g3
Ntp933
Rp934
(dp935
g7
I110
sg8
V608441
p936
sg10
I00
sg11
V6350786630982912185
p937
sg13
I1501839625718
sg14
I1
sg15
I-31019840
sg16
VMulgrave St (College of Further Ed)
p938
sg18
V6350927368470663495
p939
sg20
I189574190
sg21
I0
sg22
I1
sbag1
(g2
g3
Ntp940
Rp941
(dp942
g7
I90
sg8
V608421
p943
sg10
I00
sg11
V6350786630982912165
p944
sg13
I1501839625717
sg14
I1
sg15
I-31117932
sg16
VEnnis Rd (Limerick Lawn Tennis Club)
p945
sg18
V6350927368470663493
p946
sg20
I189600915
sg21
I0
sg22
I1
sbag1
(g2
g3
Ntp947
Rp948
(dp949
g7
I117
sg8
V608431
p950
sg10
I00
sg11
V6350786630982912175
p951
sg13
I1501839625717
sg14
I1
sg15
I-31032085
sg16
VUpr William St (Future Sound & Vision)
p952
sg18
V6350927368470663494
p953
sg20
I189578204
sg21
I0
sg22
I1
sbag1
(g2
g3
Ntp954
Rp955
(dp956
g7
I226
sg8
V333061
p957
sg10
I00
sg11
V6350786630982636805
p958
sg13
I1501839625746
sg14
I1
sg15
I-31015908
sg16
VRoxboro Rd (Garda Station)
p959
sg18
V6350927368470664168
p960
sg20
I189544838
sg21
I0
sg22
I1
sbag1
(g2
g3
Ntp961
Rp962
(dp963
g7
I100
sg8
V608401
p964
sg10
I00
sg11
V6350786630982912145
p965
sg13
I1501839625717
sg14
I1
sg15
I-31160919
sg16
VEnnis Rd (Pairc Na Gael)
p966
sg18
V6350927368470663491
p967
sg20
I189610038
sg21
I0
sg22
I1
sbag1
(g2
g3
Ntp968
Rp969
(dp970
g7
I100
sg8
V608411
p971
sg10
I00
sg11
V6350786630982912155
p972
sg13
I1501839625717
sg14
I1
sg15
I-31144140
sg16
VEnnis Rd (Clifton House)
p973
sg18
V6350927368470663492
p974
sg20
I189605631
sg21
I0
sg22
I1
sbag1
(g2
g3
Ntp975
Rp976
(dp977
g7
I100
sg8
V608391
p978
sg10
I00
sg11
V6350786630982912135
p979
sg13
I1501839625717
sg14
I1
sg15
I-31187523
sg16
VEnnis Rd (Opp Ivans Shop)
p980
sg18
V6350927368470663490
p981
sg20
I189617375
sg21
I0
sg22
I1
sbag1
(g2
g3
Ntp982
Rp983
(dp984
g7
I180
sg8
V333271
p985
sg10
I00
sg11
V6350786630982637015
p986
sg13
I1501839625805
sg14
I1
sg15
I-30970152
sg16
VBlackwater Cross (Opp Barrys Shop)
p987
sg18
V6350927368470665812
p988
sg20
I189755311
sg21
I0
sg22
I1
sbag1
(g2
g3
Ntp989
Rp990
(dp991
g7
I100
sg8
V608381
p992
sg10
I00
sg11
V6350786630982912125
p993
sg13
I1501839625717
sg14
I1
sg15
I-31205412
sg16
VEnnis Rd (Greenhills Hotel Car Park)
p994
sg18
V6350927368470663489
p995
sg20
I189621831
sg21
I0
sg22
I1
sbag1
(g2
g3
Ntp996
Rp997
(dp998
g7
I20
sg8
V607351
p999
sg10
I00
sg11
V6350786630982911095
p1000
sg13
I1501839625711
sg14
I1
sg15
I-31103028
sg16
VKileely Rd (Health Centre)
p1001
sg18
V6350927368470663388
p1002
sg20
I189626979
sg21
I0
sg22
I1
sbag1
(g2
g3
Ntp1003
Rp1004
(dp1005
g7
I350
sg8
V607301
p1006
sg10
I00
sg11
V6350786630982911045
p1007
sg13
I1501839625711
sg14
I1
sg15
I-31025668
sg16
VRoxboro Rd (Hamilton House)
p1008
sg18
V6350927368470663383
p1009
sg20
I189566524
sg21
I0
sg22
I1
sbag1
(g2
g3
Ntp1010
Rp1011
(dp1012
g7
I265
sg8
V607891
p1013
sg10
I00
sg11
V6350786630982911635
p1014
sg13
I1501839625714
sg14
I1
sg15
I-31122997
sg16
VMulcaire Rd (No 1 Castle Pk)
p1015
sg18
V6350927368470663440
p1016
sg20
I189478179
sg21
I0
sg22
I1
sbag1
(g2
g3
Ntp1017
Rp1018
(dp1019
g7
I190
sg8
V606771
p1020
sg10
I00
sg11
V6350786630982910515
p1021
sg13
I1501839625710
sg14
I1
sg15
I-31012452
sg16
VCorbally Rd (Opp Mill Rd Jctn)
p1022
sg18
V6350927368470663330
p1023
sg20
I189636951
sg21
I0
sg22
I1
sbag1
(g2
g3
Ntp1024
Rp1025
(dp1026
g7
I180
sg8
V337011
p1027
sg10
I00
sg11
V6350786630982640755
p1028
sg13
I1501839625844
sg14
I1
sg15
I-31130172
sg16
VMoylish
p1029
sg18
V6350927368470666876
p1030
sg20
I189628848
sg21
I0
sg22
I1
sbag1
(g2
g3
Ntp1031
Rp1032
(dp1033
g7
I277
sg8
V605581
p1034
sg10
I00
sg11
V6350786630982909325
p1035
sg13
I1501839625709
sg14
I1
sg15
I-31040062
sg16
VAthlunkard St (Dick Devanes Corner)
p1036
sg18
V6350927368470663311
p1037
sg20
I189605482
sg21
I0
sg22
I1
sbag1
(g2
g3
Ntp1038
Rp1039
(dp1040
g7
I270
sg8
V337001
p1041
sg10
I00
sg11
V6350786630982640745
p1042
sg13
I1501839625844
sg14
I1
sg15
I-31092120
sg16
VSalesians College (Limerick)
p1043
sg18
V6350927368470666875
p1044
sg20
I189595692
sg21
I0
sg22
I1
sbag1
(g2
g3
Ntp1045
Rp1046
(dp1047
g7
I315
sg8
V337021
p1048
sg10
I00
sg11
V6350786630982640765
p1049
sg13
I1501839625844
sg14
I1
sg15
I-31066164
sg16
VLimerick (Mallow St)
p1050
sg18
V6350927368470666877
p1051
sg20
I189575136
sg21
I0
sg22
I1
sbag1
(g2
g3
Ntp1052
Rp1053
(dp1054
g7
I14
sg8
V605551
p1055
sg10
I00
sg11
V6350786630982909295
p1056
sg13
I1501839625619
sg14
I1
sg15
I-31054903
sg16
VLimerick (Arthur's Quay)
p1057
sg18
V6350927368470661583
p1058
sg20
I189595116
sg21
I0
sg22
I1
sbag1
(g2
g3
Ntp1059
Rp1060
(dp1061
g7
I200
sg8
V605561
p1062
sg10
I00
sg11
V6350786630982909305
p1063
sg13
I1501839625680
sg14
I1
sg15
I-31059162
sg16
VO Connell St (Augustinian Church)
p1064
sg18
V6350927368470662833
p1065
sg20
I189586508
sg21
I0
sg22
I1
sbag1
(g2
g3
Ntp1066
Rp1067
(dp1068
g7
I100
sg8
V337841
p1069
sg10
I00
sg11
V6350786630982641585
p1070
sg13
I1501839625769
sg14
I1
sg15
I-31363751
sg16
VEnnis Rd (Radisson Hotel)
p1071
sg18
V6350927368470664879
p1072
sg20
I189657388
sg21
I0
sg22
I1
sbag1
(g2
g3
Ntp1073
Rp1074
(dp1075
g7
I100
sg8
V337851
p1076
sg10
I00
sg11
V6350786630982641595
p1077
sg13
I1501839625769
sg14
I1
sg15
I-31316918
sg16
VEnnis Road (Opp Two Mile Inn)
p1078
sg18
V6350927368470664880
p1079
sg20
I189648748
sg21
I0
sg22
I1
sbag1
(g2
g3
Ntp1080
Rp1081
(dp1082
g7
I5
sg8
V606611
p1083
sg10
I00
sg11
V6350786630982910355
p1084
sg13
I1501839625709
sg14
I1
sg15
I-31016844
sg16
VCorbally Rd (Milton House)
p1085
sg18
V6350927368470663314
p1086
sg20
I189626584
sg21
I0
sg22
I1
sbag1
(g2
g3
Ntp1087
Rp1088
(dp1089
g7
I340
sg8
V606631
p1090
sg10
I00
sg11
V6350786630982910375
p1091
sg13
I1501839625709
sg14
I1
sg15
I-30989232
sg16
VShannon Banks Est (13 Athlunkard Ave)
p1092
sg18
V6350927368470663316
p1093
sg20
I189666327
sg21
I0
sg22
I1
sbag1
(g2
g3
Ntp1094
Rp1095
(dp1096
g7
I170
sg8
V606651
p1097
sg10
I00
sg11
V6350786630982910395
p1098
sg13
I1501839625709
sg14
I1
sg15
I-31000172
sg16
VShannon Banks Est (33 Riverside Dr)
p1099
sg18
V6350927368470663318
p1100
sg20
I189662521
sg21
I0
sg22
I1
sbag1
(g2
g3
Ntp1101
Rp1102
(dp1103
g7
I250
sg8
V606641
p1104
sg10
I00
sg11
V6350786630982910385
p1105
sg13
I1501839625709
sg14
I1
sg15
I-30998252
sg16
VShannon Banks Est (Op 45 Riverside Dr)
p1106
sg18
V6350927368470663317
p1107
sg20
I189666084
sg21
I0
sg22
I1
sbag1
(g2
g3
Ntp1108
Rp1109
(dp1110
g7
I117
sg8
V606671
p1111
sg10
I00
sg11
V6350786630982910415
p1112
sg13
I1501839625709
sg14
I1
sg15
I-30985416
sg16
VShannon Banks Est (No 1 Riverwalk)
p1113
sg18
V6350927368470663320
p1114
sg20
I189662943
sg21
I0
sg22
I1
sbag1
(g2
g3
Ntp1115
Rp1116
(dp1117
g7
I70
sg8
V606661
p1118
sg10
I00
sg11
V6350786630982910405
p1119
sg13
I1501839625709
sg14
I1
sg15
I-30991392
sg16
VShannon Banks Est (Jnct Riverside Dr)
p1120
sg18
V6350927368470663319
p1121
sg20
I189663519
sg21
I0
sg22
I1
sbag1
(g2
g3
Ntp1122
Rp1123
(dp1124
g7
I10
sg8
V605571
p1125
sg10
I00
sg11
V6350786630982909315
p1126
sg13
I1501839625709
sg14
I1
sg15
I-31054431
sg16
VArthurs Quay (Opp Shopping Centre)
p1127
sg18
V6350927368470663310
p1128
sg20
I189595644
sg21
I0
sg22
I1
sbag1
(g2
g3
Ntp1129
Rp1130
(dp1131
g7
I70
sg8
V605591
p1132
sg10
I00
sg11
V6350786630982909335
p1133
sg13
I1501839625709
sg14
I1
sg15
I-31029922
sg16
VAthlunkard St (No 16)
p1134
sg18
V6350927368470663312
p1135
sg20
I189608768
sg21
I0
sg22
I1
sbag1
(g2
g3
Ntp1136
Rp1137
(dp1138
g7
I190
sg8
V606781
p1139
sg10
I00
sg11
V6350786630982910525
p1140
sg13
I1501839625710
sg14
I1
sg15
I-31016448
sg16
VCorbally Rd (House No 11)
p1141
sg18
V6350927368470663331
p1142
sg20
I189626799
sg21
I0
sg22
I1
sbag1
(g2
g3
Ntp1143
Rp1144
(dp1145
g7
I45
sg8
V607511
p1146
sg10
I00
sg11
V6350786630982911255
p1147
sg13
I1501839625712
sg14
I1
sg15
I-31121972
sg16
VBallinacurra (Opp St Aubin)
p1148
sg18
V6350927368470663403
p1149
sg20
I189520990
sg21
I0
sg22
I1
sbag1
(g2
g3
Ntp1150
Rp1151
(dp1152
g7
I90
sg8
V606941
p1153
sg10
I00
sg11
V6350786630982910685
p1154
sg13
I1501839625710
sg14
I1
sg15
I-31128658
sg16
VCratloe Rd (Limerick Inst of Tech)
p1155
sg18
V6350927368470663347
p1156
sg20
I189624946
sg21
I0
sg22
I1
sbag1
(g2
g3
Ntp1157
Rp1158
(dp1159
g7
I160
sg8
V607401
p1160
sg10
I00
sg11
V6350786630982911145
p1161
sg13
I1501839625712
sg14
I1
sg15
I-31117392
sg16
VBallynanty Rd (No 32 Shanabooley Rd)
p1162
sg18
V6350927368470663393
p1163
sg20
I189633027
sg21
I0
sg22
I1
sbag1
(g2
g3
Ntp1164
Rp1165
(dp1166
g7
I90
sg8
V606951
p1167
sg10
I00
sg11
V6350786630982910695
p1168
sg13
I1501839625710
sg14
I1
sg15
I-31114421
sg16
VCratloe Rd (Thomond Park)
p1169
sg18
V6350927368470663348
p1170
sg20
I189624314
sg21
I0
sg22
I1
sbag1
(g2
g3
Ntp1171
Rp1172
(dp1173
g7
I180
sg8
V333281
p1174
sg10
I00
sg11
V6350786630982637025
p1175
sg13
I1501839625840
sg14
I1
sg15
I-30972589
sg16
VKnockdonagh Cross (southbound)
p1176
sg18
V6350927368470666664
p1177
sg20
I189855165
sg21
I0
sg22
I1
sbag1
(g2
g3
Ntp1178
Rp1179
(dp1180
g7
I310
sg8
V608341
p1181
sg10
I00
sg11
V6350786630982912085
p1182
sg13
I1501839625717
sg14
I1
sg15
I-31151412
sg16
VEnnis Rd (North Twn Shopp Centre)
p1183
sg18
V6350927368470663485
p1184
sg20
I189607359
sg21
I0
sg22
I1
sbag1
(g2
g3
Ntp1185
Rp1186
(dp1187
g7
I302
sg8
V608321
p1188
sg10
I00
sg11
V6350786630982912065
p1189
sg13
I1501839625717
sg14
I1
sg15
I-31041712
sg16
VSexton St (Opp McGraths Servicing & Tyre
p1190
sg18
V6350927368470663483
p1191
sg20
I189578030
sg21
I0
sg22
I1
sbag1
(g2
g3
Ntp1192
Rp1193
(dp1194
g7
I290
sg8
V608331
p1195
sg10
I00
sg11
V6350786630982912075
p1196
sg13
I1501839625717
sg14
I1
sg15
I-31136400
sg16
VEnnis Rd (Ardhu Bar)
p1197
sg18
V6350927368470663484
p1198
sg20
I189603363
sg21
I0
sg22
I1
sbag1
(g2
g3
Ntp1199
Rp1200
(dp1201
g7
I190
sg8
V333251
p1202
sg10
I00
sg11
V6350786630982636995
p1203
sg13
I1501839625805
sg14
I1
sg15
I-30972297
sg16
VLarkins Cross (Filling Station)
p1204
sg18
V6350927368470665810
p1205
sg20
I189682599
sg21
I0
sg22
I1
sbag1
(g2
g3
Ntp1206
Rp1207
(dp1208
g7
I270
sg8
V608371
p1209
sg10
I00
sg11
V6350786630982912115
p1210
sg13
I1501839625717
sg14
I1
sg15
I-31202100
sg16
VEnnis Rd (Ennis Rd Motors)
p1211
sg18
V6350927368470663488
p1212
sg20
I189620643
sg21
I0
sg22
I1
sbag1
(g2
g3
Ntp1213
Rp1214
(dp1215
g7
I180
sg8
V333261
p1216
sg10
I00
sg11
V6350786630982637005
p1217
sg13
I1501839625805
sg14
I1
sg15
I-30962689
sg16
VConnors Cross (Opp Filling Station)
p1218
sg18
V6350927368470665811
p1219
sg20
I189720554
sg21
I0
sg22
I1
sbag1
(g2
g3
Ntp1220
Rp1221
(dp1222
g7
I290
sg8
V608361
p1223
sg10
I00
sg11
V6350786630982912105
p1224
sg13
I1501839625717
sg14
I1
sg15
I-31176242
sg16
VEnnis Rd (Jetland)
p1225
sg18
V6350927368470663487
p1226
sg20
I189614067
sg21
I0
sg22
I1
sbag1
(g2
g3
Ntp1227
Rp1228
(dp1229
g7
I200
sg8
V607481
p1230
sg10
I00
sg11
V6350786630982911225
p1231
sg13
I1501839625712
sg14
I1
sg15
I-31159008
sg16
VSt Nessans Rd (University Hospital)
p1232
sg18
V6350927368470663400
p1233
sg20
I189486759
sg21
I0
sg22
I1
sbag1
(g2
g3
Ntp1234
Rp1235
(dp1236
g7
I20
sg8
V607461
p1237
sg10
I00
sg11
V6350786630982911205
p1238
sg13
I1501839625712
sg14
I1
sg15
I-31181566
sg16
VRaheen (Opposite St Nessans Church)
p1239
sg18
V6350927368470663398
p1240
sg20
I189465323
sg21
I0
sg22
I1
sbag1
(g2
g3
Ntp1241
Rp1242
(dp1243
g7
I80
sg8
V606931
p1244
sg10
I00
sg11
V6350786630982910675
p1245
sg13
I1501839625710
sg14
I1
sg15
I-31161523
sg16
VBrookville Ave (Brookville Ave)
p1246
sg18
V6350927368470663346
p1247
sg20
I189621553
sg21
I0
sg22
I1
sbag1
(g2
g3
Ntp1248
Rp1249
(dp1250
g7
I290
sg8
V608301
p1251
sg10
I00
sg11
V6350786630982912045
p1252
sg13
I1501839625717
sg14
I1
sg15
I-31021555
sg16
VMulgrave St (Jerry O Deas Bar)
p1253
sg18
V6350927368470663481
p1254
sg20
I189574627
sg21
I0
sg22
I1
sbag1
(g2
g3
Ntp1255
Rp1256
(dp1257
g7
I290
sg8
V608311
p1258
sg10
I00
sg11
V6350786630982912055
p1259
sg13
I1501839625717
sg14
I1
sg15
I-31028289
sg16
VMulgrave St (Opp Fire Station)
p1260
sg18
V6350927368470663482
p1261
sg20
I189576842
sg21
I0
sg22
I1
sbag1
(g2
g3
Ntp1262
Rp1263
(dp1264
g7
I359
sg8
V608181
p1265
sg10
I00
sg11
V6350786630982911925
p1266
sg13
I1501839625715
sg14
I1
sg15
I-31049604
sg16
VHyde Rd (Meagher Close)
p1267
sg18
V6350927368470663469
p1268
sg20
I189563547
sg21
I0
sg22
I1
sbag1
(g2
g3
Ntp1269
Rp1270
(dp1271
g7
I10
sg8
V608171
p1272
sg10
I00
sg11
V6350786630982911915
p1273
sg13
I1501839625715
sg14
I1
sg15
I-31052990
sg16
VHyde Rd (No 76)
p1274
sg18
V6350927368470663468
p1275
sg20
I189550191
sg21
I0
sg22
I1
sbag1
(g2
g3
Ntp1276
Rp1277
(dp1278
g7
I270
sg8
V607681
p1279
sg10
I00
sg11
V6350786630982911425
p1280
sg13
I1501839625713
sg14
I1
sg15
I-30831768
sg16
VDublin Rd (Opp Elsinor Est)
p1281
sg18
V6350927368470663420
p1282
sg20
I189602536
sg21
I0
sg22
I1
sbag1
(g2
g3
Ntp1283
Rp1284
(dp1285
g7
I300
sg8
V607321
p1286
sg10
I00
sg11
V6350786630982911065
p1287
sg13
I1501839625711
sg14
I1
sg15
I-31059324
sg16
VRoches Street (Mortells Restaurant)
p1288
sg18
V6350927368470663385
p1289
sg20
I189583707
sg21
I0
sg22
I1
sbag1
(g2
g3
Ntp1290
Rp1291
(dp1292
g7
I178
sg8
V606711
p1293
sg10
I00
sg11
V6350786630982910455
p1294
sg13
I1501839625709
sg14
I1
sg15
I-30950568
sg16
VWestbury Est (Op No 56 Clonard)
p1295
sg18
V6350927368470663324
p1296
sg20
I189658587
sg21
I0
sg22
I1
sbag1
(g2
g3
Ntp1297
Rp1298
(dp1299
g7
I57
sg8
V606691
p1300
sg10
I00
sg11
V6350786630982910435
p1301
sg13
I1501839625709
sg14
I1
sg15
I-30972888
sg16
VWestbury Est (Annavilla Grove)
p1302
sg18
V6350927368470663322
p1303
sg20
I189670107
sg21
I0
sg22
I1
sbag1
(g2
g3
Ntp1304
Rp1305
(dp1306
g7
I260
sg8
V609281
p1307
sg10
I00
sg11
V6350786630982913025
p1308
sg13
I1501839625723
sg14
I1
sg15
I-30977028
sg16
VO Malley Pk (Opp Mountain View Tce)
p1309
sg18
V6350927368470663577
p1310
sg20
I189532983
sg21
I0
sg22
I1
sbag1
(g2
g3
Ntp1311
Rp1312
(dp1313
g7
I260
sg8
V609291
p1314
sg10
I00
sg11
V6350786630982913035
p1315
sg13
I1501839625723
sg14
I1
sg15
I-30986280
sg16
VO Malley Pk (Valley View)
p1316
sg18
V6350927368470663578
p1317
sg20
I189530608
sg21
I0
sg22
I1
sbag1
(g2
g3
Ntp1318
Rp1319
(dp1320
g7
I359
sg8
V609301
p1321
sg10
I00
sg11
V6350786630982913045
p1322
sg13
I1501839625723
sg14
I1
sg15
I-31016599
sg16
VRoxboro Rd (Opp Roxboro Garda Station)
p1323
sg18
V6350927368470663579
p1324
sg20
I189543582
sg21
I0
sg22
I1
sbag1
(g2
g3
Ntp1325
Rp1326
(dp1327
g7
I180
sg8
V609311
p1328
sg10
I00
sg11
V6350786630982913055
p1329
sg13
I1501839625872
sg14
I1
sg15
I-30795721
sg16
VCastletroy Shopping Centre
p1330
sg18
V6350927368470667632
p1331
sg20
I189599962
sg21
I0
sg22
I1
sbag1
(g2
g3
Ntp1332
Rp1333
(dp1334
g7
I270
sg8
V609361
p1335
sg10
I00
sg11
V6350786630982913105
p1336
sg13
I1501839625746
sg14
I1
sg15
I-31039488
sg16
VChilders Rd (No. 1 Sycamore Ave)
p1337
sg18
V6350927368470664177
p1338
sg20
I189534387
sg21
I0
sg22
I1
sbag1
(g2
g3
Ntp1339
Rp1340
(dp1341
g7
I280
sg8
V609371
p1342
sg10
I00
sg11
V6350786630982913115
p1343
sg13
I1501839625746
sg14
I1
sg15
I-31145190
sg16
VAvonmore Rd (Eircom Building)
p1344
sg18
V6350927368470664178
p1345
sg20
I189464334
sg21
I0
sg22
I1
sbag1
(g2
g3
Ntp1346
Rp1347
(dp1348
g7
I45
sg8
V609381
p1349
sg10
I00
sg11
V6350786630982913125
p1350
sg13
I1501839625746
sg14
I1
sg15
I-31168177
sg16
VSt Nessans Road (Opp Meadowvale Est)
p1351
sg18
V6350927368470664179
p1352
sg20
I189477098
sg21
I0
sg22
I1
sbag1
(g2
g3
Ntp1353
Rp1354
(dp1355
g7
I100
sg8
V609391
p1356
sg10
I00
sg11
V6350786630982913135
p1357
sg13
I1501839625746
sg14
I1
sg15
I-31073749
sg16
VBarrington St (Car Park)
p1358
sg18
V6350927368470664180
p1359
sg20
I189570132
sg21
I0
sg22
I1
sbag1
(g2
g3
Ntp1360
Rp1361
(dp1362
g7
I20
sg8
V606681
p1363
sg10
I00
sg11
V6350786630982910425
p1364
sg13
I1501839625709
sg14
I1
sg15
I-30984905
sg16
VCorbally Rd (Shannon Banks Estate)
p1365
sg18
V6350927368470663321
p1366
sg20
I189659225
sg21
I0
sg22
I1
sbag1
(g2
g3
Ntp1367
Rp1368
(dp1369
g7
I280
sg8
V607711
p1370
sg10
I00
sg11
V6350786630982911455
p1371
sg13
I1501839625713
sg14
I1
sg15
I-30927558
sg16
VDublin Rd (Parkway Retail Pk)
p1372
sg18
V6350927368470663423
p1373
sg20
I189584203
sg21
I0
sg22
I1
sbag1
(g2
g3
Ntp1374
Rp1375
(dp1376
g7
I190
sg8
V607721
p1377
sg10
I00
sg11
V6350786630982911465
p1378
sg13
I1501839625713
sg14
I1
sg15
I-30948480
sg16
VChilders Rd (Shopping Centre)
p1379
sg18
V6350927368470663424
p1380
sg20
I189567400
sg21
I0
sg22
I1
sbag1
(g2
g3
Ntp1381
Rp1382
(dp1383
g7
I110
sg8
V607411
p1384
sg10
I00
sg11
V6350786630982911155
p1385
sg13
I1501839625712
sg14
I1
sg15
I-31077691
sg16
VHigh Road (No 90)
p1386
sg18
V6350927368470663394
p1387
sg20
I189615939
sg21
I0
sg22
I1
sbag1
(g2
g3
Ntp1388
Rp1389
(dp1390
g7
I150
sg8
V608121
p1391
sg10
I00
sg11
V6350786630982911865
p1392
sg13
I1501839625714
sg14
I1
sg15
I-31166712
sg16
VRaheen Ind Est (Analog Devices)
p1393
sg18
V6350927368470663463
p1394
sg20
I189459039
sg21
I0
sg22
I1
sbag1
(g2
g3
Ntp1395
Rp1396
(dp1397
g7
I250
sg8
V606761
p1398
sg10
I00
sg11
V6350786630982910505
p1399
sg13
I1501839625831
sg14
I1
sg15
I-31001633
sg16
VCorbally Rd (Irish Estates)
p1400
sg18
V6350927368470666460
p1401
sg20
I189649895
sg21
I0
sg22
I1
sbag1
(g2
g3
Ntp1402
Rp1403
(dp1404
g7
I153
sg8
V607941
p1405
sg10
I00
sg11
V6350786630982911685
p1406
sg13
I1501839625871
sg14
I1
sg15
I-31149110
sg16
VBallycummin Rd (Opp Dry Cleaners)
p1407
sg18
V6350927368470667617
p1408
sg20
I189450578
sg21
I0
sg22
I1
sbag1
(g2
g3
Ntp1409
Rp1410
(dp1411
g7
I126
sg8
V608071
p1412
sg10
I00
sg11
V6350786630982911815
p1413
sg13
I1501839625714
sg14
I1
sg15
I-31071168
sg16
VEdward St (Quins Cottage)
p1414
sg18
V6350927368470663458
p1415
sg20
I189553035
sg21
I0
sg22
I1
sbag1
(g2
g3
Ntp1416
Rp1417
(dp1418
g7
I250
sg8
V607901
p1419
sg10
I00
sg11
V6350786630982911645
p1420
sg13
I1501839625714
sg14
I1
sg15
I-31133448
sg16
VMulcaire Rd (No 1 Crescent Court)
p1421
sg18
V6350927368470663441
p1422
sg20
I189473547
sg21
I0
sg22
I1
sbag1
(g2
g3
Ntp1423
Rp1424
(dp1425
g7
I15
sg8
V607881
p1426
sg10
I00
sg11
V6350786630982911625
p1427
sg13
I1501839625713
sg14
I1
sg15
I-31091792
sg16
VPunches Cross (Punches Cross)
p1428
sg18
V6350927368470663439
p1429
sg20
I189539907
sg21
I0
sg22
I1
sbag1
(g2
g3
Ntp1430
Rp1431
(dp1432
g7
I189
sg8
V607871
p1433
sg10
I00
sg11
V6350786630982911615
p1434
sg13
I1501839625713
sg14
I1
sg15
I-31088196
sg16
VO Connell Ave (Carmel House)
p1435
sg18
V6350927368470663438
p1436
sg20
I189548931
sg21
I0
sg22
I1
sbag1
(g2
g3
Ntp1437
Rp1438
(dp1439
g7
I200
sg8
V607861
p1440
sg10
I00
sg11
V6350786630982911605
p1441
sg13
I1501839625713
sg14
I1
sg15
I-31084560
sg16
VO Connell Ave (Model School)
p1442
sg18
V6350927368470663437
p1443
sg20
I189559155
sg21
I0
sg22
I1
sbag1
(g2
g3
Ntp1444
Rp1445
(dp1446
g7
I45
sg8
V607531
p1447
sg10
I00
sg11
V6350786630982911275
p1448
sg13
I1501839625712
sg14
I1
sg15
I-31098922
sg16
VBallinacurra (Lifford Lodge)
p1449
sg18
V6350927368470663405
p1450
sg20
I189531712
sg21
I0
sg22
I1
sbag1
(g2
g3
Ntp1451
Rp1452
(dp1453
g7
I276
sg8
V598201
p1454
sg10
I00
sg11
V6350786630982901945
p1455
sg13
I1501839625612
sg14
I1
sg15
I-31150523
sg16
VRaheen Ind Est (Limerick Food Centre)
p1456
sg18
V6350927368470661241
p1457
sg20
I189427536
sg21
I0
sg22
I1
sbag1
(g2
g3
Ntp1458
Rp1459
(dp1460
g7
I287
sg8
V607911
p1461
sg10
I00
sg11
V6350786630982911655
p1462
sg13
I1501839625714
sg14
I1
sg15
I-31141764
sg16
VMulcaire Rd (Opp Owenmore Dr)
p1463
sg18
V6350927368470663442
p1464
sg20
I189466167
sg21
I0
sg22
I1
sbag1
(g2
g3
Ntp1465
Rp1466
(dp1467
g7
I217
sg8
V608131
p1468
sg10
I00
sg11
V6350786630982911875
p1469
sg13
I1501839625871
sg14
I1
sg15
I-31160516
sg16
VRaheen Ind Est (Kirby Engineering)
p1470
sg18
V6350927368470667623
p1471
sg20
I189445535
sg21
I0
sg22
I1
sbag1
(g2
g3
Ntp1472
Rp1473
(dp1474
g7
I100
sg8
V607591
p1475
sg10
I00
sg11
V6350786630982911335
p1476
sg13
I1501839625712
sg14
I1
sg15
I-30928805
sg16
VDublin Rd (Opp Parkway Retail Pk)
p1477
sg18
V6350927368470663411
p1478
sg20
I189584560
sg21
I0
sg22
I1
sbag1
(g2
g3
Ntp1479
Rp1480
(dp1481
g7
I25
sg8
V607571
p1482
sg10
I00
sg11
V6350786630982911315
p1483
sg13
I1501839625712
sg14
I1
sg15
I-30950352
sg16
VChilders Rd (Opp Shopping Centre)
p1484
sg18
V6350927368470663409
p1485
sg20
I189565348
sg21
I0
sg22
I1
sbag1
(g2
g3
Ntp1486
Rp1487
(dp1488
g7
I25
sg8
V607581
p1489
sg10
I00
sg11
V6350786630982911325
p1490
sg13
I1501839625712
sg14
I1
sg15
I-30946725
sg16
VChilders Rd (Opp Claughaun GAA)
p1491
sg18
V6350927368470663410
p1492
sg20
I189572235
sg21
I0
sg22
I1
sbag1
(g2
g3
Ntp1493
Rp1494
(dp1495
g7
I270
sg8
V607671
p1496
sg10
I00
sg11
V6350786630982911415
p1497
sg13
I1501839625713
sg14
I1
sg15
I-30814056
sg16
VDublin Rd (Opp The Hurlers Pub)
p1498
sg18
V6350927368470663419
p1499
sg20
I189603145
sg21
I0
sg22
I1
sbag1
(g2
g3
Ntp1500
Rp1501
(dp1502
g7
I35
sg8
V607491
p1503
sg10
I00
sg11
V6350786630982911235
p1504
sg13
I1501839625712
sg14
I1
sg15
I-31145546
sg16
VSt Nessans Rd (Xtra Vision)
p1505
sg18
V6350927368470663401
p1506
sg20
I189504281
sg21
I0
sg22
I1
sbag1
(g2
g3
Ntp1507
Rp1508
(dp1509
g7
I200
sg8
V607501
p1510
sg10
I00
sg11
V6350786630982911245
p1511
sg13
I1501839625712
sg14
I1
sg15
I-31133232
sg16
VSt Nessans Rd (Crescent SC)
p1512
sg18
V6350927368470663402
p1513
sg20
I189510339
sg21
I0
sg22
I1
sbag1
(g2
g3
Ntp1514
Rp1515
(dp1516
g7
I45
sg8
V607601
p1517
sg10
I00
sg11
V6350786630982911345
p1518
sg13
I1501839625712
sg14
I1
sg15
I-30885948
sg16
VPlassey Park Rd (Opp Nursing Home)
p1519
sg18
V6350927368470663412
p1520
sg20
I189601420
sg21
I0
sg22
I1
sbag1
(g2
g3
Ntp1521
Rp1522
(dp1523
g7
I325
sg8
V607611
p1524
sg10
I00
sg11
V6350786630982911355
p1525
sg13
I1501839625712
sg14
I1
sg15
I-30869784
sg16
VUniversity of Limerick (Flag Poles)
p1526
sg18
V6350927368470663413
p1527
sg20
I189608331
sg21
I0
sg22
I1
sbag1
(g2
g3
Ntp1528
Rp1529
(dp1530
g7
I170
sg8
V607661
p1531
sg10
I00
sg11
V6350786630982911405
p1532
sg13
I1501839625713
sg14
I1
sg15
I-30796668
sg16
VKilmurry Hotel (Milford Rd)
p1533
sg18
V6350927368470663418
p1534
sg20
I189606712
sg21
I0
sg22
I1
sbag1
(g2
g3
Ntp1535
Rp1536
(dp1537
g7
I225
sg8
V333831
p1538
sg10
I00
sg11
V6350786630982637575
p1539
sg13
I1501839625806
sg14
I1
sg15
I-31161633
sg16
VBallycannon (Elton Court)
p1540
sg18
V6350927368470665823
p1541
sg20
I189720255
sg21
I0
sg22
I1
sbag1
(g2
g3
Ntp1542
Rp1543
(dp1544
g7
I300
sg8
V606881
p1545
sg10
I00
sg11
V6350786630982910625
p1546
sg13
I1501839625710
sg14
I1
sg15
I-31152912
sg16
VOld Cratloe Rd (Baptist Church)
p1547
sg18
V6350927368470663341
p1548
sg20
I189633029
sg21
I0
sg22
I1
sbag1
(g2
g3
Ntp1549
Rp1550
(dp1551
g7
I253
sg8
V332091
p1552
sg10
I00
sg11
V6350786630982635835
p1553
sg13
I1501839625596
sg14
I1
sg15
I-31430714
sg16
VClarina (Filling Station)
p1554
sg18
V6350927368470660864
p1555
sg20
I189476661
sg21
I0
sg22
I1
sbag1
(g2
g3
Ntp1556
Rp1557
(dp1558
g7
I279
sg8
V332081
p1559
sg10
I00
sg11
V6350786630982635825
p1560
sg13
I1501839625596
sg14
I1
sg15
I-31295382
sg16
VMungret (St Oliver Plunket Church)
p1561
sg18
V6350927368470660863
p1562
sg20
I189488427
sg21
I0
sg22
I1
sbag1
(g2
g3
Ntp1563
Rp1564
(dp1565
g7
I160
sg8
V609331
p1566
sg10
I00
sg11
V6350786630982913075
p1567
sg13
I1501839625746
sg14
I1
sg15
I-31203793
sg16
VSt Nessans School (Opp St Nessans)
p1568
sg18
V6350927368470664175
p1569
sg20
I189472737
sg21
I0
sg22
I1
sbag1
(g2
g3
Ntp1570
Rp1571
(dp1572
g7
I69
sg8
V609501
p1573
sg10
I00
sg11
V6350786630982913245
p1574
sg13
I1501839625746
sg14
I1
sg15
I-31121329
sg16
VMoylish Rd (Opp Community Centre)
p1575
sg18
V6350927368470664189
p1576
sg20
I189638361
sg21
I0
sg22
I1
sbag1
(g2
g3
Ntp1577
Rp1578
(dp1579
g7
I74
sg8
V332021
p1580
sg10
I00
sg11
V6350786630982635765
p1581
sg13
I1501839625596
sg14
I1
sg15
I-31010256
sg16
VParteen (Bishop Murphy Park)
p1582
sg18
V6350927368470660859
p1583
sg20
I189709506
sg21
I0
sg22
I1
sbag1
(g2
g3
Ntp1584
Rp1585
(dp1586
g7
I83
sg8
V332031
p1587
sg10
I00
sg11
V6350786630982635775
p1588
sg13
I1501839625596
sg14
I1
sg15
I-30963481
sg16
VConnors Cross (Filling Station)
p1589
sg18
V6350927368470660860
p1590
sg20
I189720850
sg21
I0
sg22
I1
sbag1
(g2
g3
Ntp1591
Rp1592
(dp1593
g7
I124
sg8
V332061
p1594
sg10
I00
sg11
V6350786630982635805
p1595
sg13
I1501839625596
sg14
I1
sg15
I-31027338
sg16
VArdnacrusha (ESB Station Car Park)
p1596
sg18
V6350927368470660862
p1597
sg20
I189745031
sg21
I0
sg22
I1
sbag1
(g2
g3
Ntp1598
Rp1599
(dp1600
g7
I2
sg8
V332051
p1601
sg10
I00
sg11
V6350786630982635795
p1602
sg13
I1501839625596
sg14
I1
sg15
I-30970257
sg16
VBlackwater Cross (Barrys Shop)
p1603
sg18
V6350927368470660861
p1604
sg20
I189755440
sg21
I0
sg22
I1
sbag1
(g2
g3
Ntp1605
Rp1606
(dp1607
g7
I33
sg8
V607951
p1608
sg10
I00
sg11
V6350786630982911695
p1609
sg13
I1501839625871
sg14
I1
sg15
I-31141872
sg16
VMulcaire Rd (Owenmore Drive)
p1610
sg18
V6350927368470667618
p1611
sg20
I189466455
sg21
I0
sg22
I1
sbag1
(g2
g3
Ntp1612
Rp1613
(dp1614
g7
I10
sg8
V606621
p1615
sg10
I00
sg11
V6350786630982910365
p1616
sg13
I1501839625709
sg14
I1
sg15
I-31012668
sg16
VCorbally Rd (Mill Rd Junction)
p1617
sg18
V6350927368470663315
p1618
sg20
I189637312
sg21
I0
sg22
I1
sbag1
(g2
g3
Ntp1619
Rp1620
(dp1621
g7
I206
sg8
V609321
p1622
sg10
I00
sg11
V6350786630982913065
p1623
sg13
I1501839625723
sg14
I1
sg15
I-31102812
sg16
VKileely Rd (Opp Health Centre)
p1624
sg18
V6350927368470663581
p1625
sg20
I189626547
sg21
I0
sg22
I1
sbag1
(g2
g3
Ntp1626
Rp1627
(dp1628
g7
I300
sg8
V609341
p1629
sg10
I00
sg11
V6350786630982913085
p1630
sg13
I1501839625746
sg14
I1
sg15
I-31066880
sg16
VLower Mallow St (25)
p1631
sg18
V6350927368470664176
p1632
sg20
I189575418
sg21
I0
sg22
I1
sbag1
(g2
g3
Ntp1633
Rp1634
(dp1635
g7
I90
sg8
V295631
p1636
sg10
I00
sg11
V6350786630982599375
p1637
sg13
I1501839625562
sg14
I1
sg15
I-31207208
sg16
VGreenhills
p1638
sg18
V6350927368470659886
p1639
sg20
I189622436
sg21
I0
sg22
I1
sbag1
(g2
g3
Ntp1640
Rp1641
(dp1642
g7
I270
sg8
V607741
p1643
sg10
I00
sg11
V6350786630982911485
p1644
sg13
I1501839625829
sg14
I1
sg15
I-30827419
sg16
VPlassey Park Road (Opp UL East Gate)
p1645
sg18
V6350927368470666416
p1646
sg20
I189614070
sg21
I0
sg22
I1
sbag1
(g2
g3
Ntp1647
Rp1648
(dp1649
g7
I250
sg8
V607771
p1650
sg10
I00
sg11
V6350786630982911515
p1651
sg13
I1501839625713
sg14
I1
sg15
I-31111910
sg16
VBallinacurra (Tall Trees)
p1652
sg18
V6350927368470663428
p1653
sg20
I189525461
sg21
I0
sg22
I1
sbag1
(g2
g3
Ntp1654
Rp1655
(dp1656
g7
I340
sg8
V607361
p1657
sg10
I00
sg11
V6350786630982911105
p1658
sg13
I1501839625712
sg14
I1
sg15
I-31108425
sg16
VBallynanty Rd (Opp Credit Union)
p1659
sg18
V6350927368470663389
p1660
sg20
I189632038
sg21
I0
sg22
I1
sbag1
(g2
g3
Ntp1661
Rp1662
(dp1663
g7
I29
sg8
V607621
p1664
sg10
I00
sg11
V6350786630982911365
p1665
sg13
I1501839625712
sg14
I1
sg15
I-30873305
sg16
VUniversity of Limerick (Dromroe Stop)
p1666
sg18
V6350927368470663414
p1667
sg20
I189618064
sg21
I0
sg22
I1
sbag1
(g2
g3
Ntp1668
Rp1669
(dp1670
g7
I20
sg8
V608161
p1671
sg10
I00
sg11
V6350786630982911905
p1672
sg13
I1501839625714
sg14
I1
sg15
I-31061628
sg16
VHyde Rd (No 66)
p1673
sg18
V6350927368470663467
p1674
sg20
I189539967
sg21
I0
sg22
I1
sbag1
(g2
g3
Ntp1675
Rp1676
(dp1677
g7
I123
sg8
V607831
p1678
sg10
I00
sg11
V6350786630982911575
p1679
sg13
I1501839625713
sg14
I1
sg15
I-31058028
sg16
VSarsfield St (Debenhams)
p1680
sg18
V6350927368470663434
p1681
sg20
I189590691
sg21
I0
sg22
I1
sbag1
(g2
g3
Ntp1682
Rp1683
(dp1684
g7
I100
sg8
V607631
p1685
sg10
I00
sg11
V6350786630982911375
p1686
sg13
I1501839625713
sg14
I1
sg15
I-30854927
sg16
VUniversity of Limerick (Stables)
p1687
sg18
V6350927368470663415
p1688
sg20
I189621802
sg21
I0
sg22
I1
sbag1
(g2
g3
Ntp1689
Rp1690
(dp1691
g7
I20
sg8
V608041
p1692
sg10
I00
sg11
V6350786630982911785
p1693
sg13
I1501839625714
sg14
I1
sg15
I-31071201
sg16
VHenry St (Garda Station)
p1694
sg18
V6350927368470663455
p1695
sg20
I189582455
sg21
I0
sg22
I1
sbag1
(g2
g3
Ntp1696
Rp1697
(dp1698
g7
I170
sg8
V608221
p1699
sg10
I00
sg11
V6350786630982911965
p1700
sg13
I1501839625715
sg14
I1
sg15
I-31050720
sg16
VHyde Rd (Post Office)
p1701
sg18
V6350927368470663473
p1702
sg20
I189569559
sg21
I0
sg22
I1
sbag1
(g2
g3
Ntp1703
Rp1704
(dp1705
g7
I90
sg8
V607641
p1706
sg10
I00
sg11
V6350786630982911385
p1707
sg13
I1501839625713
sg14
I1
sg15
I-30827748
sg16
VPlassey Pk Rd (UL East Gate)
p1708
sg18
V6350927368470663416
p1709
sg20
I189614272
sg21
I0
sg22
I1
sbag1
(g2
g3
Ntp1710
Rp1711
(dp1712
g7
I45
sg8
V607201
p1713
sg10
I00
sg11
V6350786630982910945
p1714
sg13
I1501839625711
sg14
I1
sg15
I-31021272
sg16
VCarew Pk (Opp No 23 Maigue Way)
p1715
sg18
V6350927368470663373
p1716
sg20
I189518547
sg21
I0
sg22
I1
sbag1
(g2
g3
Ntp1717
Rp1718
(dp1719
g7
I270
sg8
V607341
p1720
sg10
I00
sg11
V6350786630982911085
p1721
sg13
I1501839625711
sg14
I1
sg15
I-31076811
sg16
VHigh Rd (Thomondgate (Opp No 65)
p1722
sg18
V6350927368470663387
p1723
sg20
I189615483
sg21
I0
sg22
I1
sbag1
(g2
g3
Ntp1724
Rp1725
(dp1726
g7
I90
sg8
V607651
p1727
sg10
I00
sg11
V6350786630982911395
p1728
sg13
I1501839625713
sg14
I1
sg15
I-30806676
sg16
VPlassey Pk Rd (Opp Oak Lawn)
p1729
sg18
V6350927368470663417
p1730
sg20
I189614416
sg21
I0
sg22
I1
sbag1
(g2
g3
Ntp1731
Rp1732
(dp1733
g7
I30
sg8
V609151
p1734
sg10
I00
sg11
V6350786630982912895
p1735
sg13
I1501839625722
sg14
I1
sg15
I-31093959
sg16
VO Callaghan Ave (No 18 Killeely Rd)
p1736
sg18
V6350927368470663564
p1737
sg20
I189627525
sg21
I0
sg22
I1
sbag1
(g2
g3
Ntp1738
Rp1739
(dp1740
g7
I265
sg8
V609111
p1741
sg10
I00
sg11
V6350786630982912855
p1742
sg13
I1501839625872
sg14
I1
sg15
I-31027385
sg16
VCarew Park (Opp Swallow Drive)
p1743
sg18
V6350927368470667630
p1744
sg20
I189524311
sg21
I0
sg22
I1
sbag1
(g2
g3
Ntp1745
Rp1746
(dp1747
g7
I225
sg8
V609091
p1748
sg10
I00
sg11
V6350786630982912835
p1749
sg13
I1501839625871
sg14
I1
sg15
I-31118591
sg16
VBallycummin (The Forts)
p1750
sg18
V6350927368470667628
p1751
sg20
I189459147
sg21
I0
sg22
I1
sbag1
(g2
g3
Ntp1752
Rp1753
(dp1754
g7
I259
sg8
V609101
p1755
sg10
I00
sg11
V6350786630982912845
p1756
sg13
I1501839625872
sg14
I1
sg15
I-31124124
sg16
VBallycummin (Rathmore)
p1757
sg18
V6350927368470667629
p1758
sg20
I189451440
sg21
I0
sg22
I1
sbag1
(g2
g3
Ntp1759
Rp1760
(dp1761
g7
I284
sg8
V609201
p1762
sg10
I00
sg11
V6350786630982912945
p1763
sg13
I1501839625722
sg14
I1
sg15
I-31141152
sg16
VCraeval Park (Turning Circle)
p1764
sg18
V6350927368470663569
p1765
sg20
I189655095
sg21
I0
sg22
I1
sbag1
(g2
g3
Ntp1766
Rp1767
(dp1768
g7
I190
sg8
V609191
p1769
sg10
I00
sg11
V6350786630982912935
p1770
sg13
I1501839625722
sg14
I1
sg15
I-31093920
sg16
VO Callaghan Ave (Opp No 18)
p1771
sg18
V6350927368470663568
p1772
sg20
I189627195
sg21
I0
sg22
I1
sbag1
(g2
g3
Ntp1773
Rp1774
(dp1775
g7
I180
sg8
V609181
p1776
sg10
I00
sg11
V6350786630982912925
p1777
sg13
I1501839625722
sg14
I1
sg15
I-31089413
sg16
VHennessy Ave (No 44)
p1778
sg18
V6350927368470663567
p1779
sg20
I189633893
sg21
I0
sg22
I1
sbag1
(g2
g3
Ntp1780
Rp1781
(dp1782
g7
I300
sg8
V609171
p1783
sg10
I00
sg11
V6350786630982912915
p1784
sg13
I1501839625872
sg14
I1
sg15
I-31104504
sg16
VMoyross (Dalgaish Park)
p1785
sg18
V6350927368470667631
p1786
sg20
I189644623
sg21
I0
sg22
I1
sbag1
(g2
g3
Ntp1787
Rp1788
(dp1789
g7
I200
sg8
V607851
p1790
sg10
I00
sg11
V6350786630982911595
p1791
sg13
I1501839625713
sg14
I1
sg15
I-31073652
sg16
VO Connell St (O Connell Monument)
p1792
sg18
V6350927368470663436
p1793
sg20
I189572547
sg21
I0
sg22
I1
sbag1
(g2
g3
Ntp1794
Rp1795
(dp1796
g7
I155
sg8
V606701
p1797
sg10
I00
sg11
V6350786630982910445
p1798
sg13
I1501839625709
sg14
I1
sg15
I-30951936
sg16
VWestbury Est (No. 150 Clonard)
p1799
sg18
V6350927368470663323
p1800
sg20
I189666255
sg21
I0
sg22
I1
sbag1
(g2
g3
Ntp1801
Rp1802
(dp1803
g7
I250
sg8
V609031
p1804
sg10
I00
sg11
V6350786630982912775
p1805
sg13
I1501839625721
sg14
I1
sg15
I-31200510
sg16
VFr Russell Rd (No 4 Russell House)
p1806
sg18
V6350927368470663554
p1807
sg20
I189491697
sg21
I0
sg22
I1
sbag1
(g2
g3
Ntp1808
Rp1809
(dp1810
g7
I45
sg8
V609141
p1811
sg10
I00
sg11
V6350786630982912885
p1812
sg13
I1501839625722
sg14
I1
sg15
I-31096656
sg16
VO Callaghan Ave (Johnseys Shop)
p1813
sg18
V6350927368470663563
p1814
sg20
I189622767
sg21
I0
sg22
I1
sbag1
(g2
g3
Ntp1815
Rp1816
(dp1817
g7
I347
sg8
V609771
p1818
sg10
I00
sg11
V6350786630982913515
p1819
sg13
I1501839625872
sg14
I1
sg15
I-30848342
sg16
VGolf Links Rd (Kilbane Estate)
p1820
sg18
V6350927368470667639
p1821
sg20
I189582919
sg21
I0
sg22
I1
sbag1
(g2
g3
Ntp1822
Rp1823
(dp1824
g7
I80
sg8
V609761
p1825
sg10
I00
sg11
V6350786630982913505
p1826
sg13
I1501839625872
sg14
I1
sg15
I-31000777
sg16
VPennywell (Limerick Paint Supplies)
p1827
sg18
V6350927368470667638
p1828
sg20
I189592679
sg21
I0
sg22
I1
sbag1
(g2
g3
Ntp1829
Rp1830
(dp1831
g7
I270
sg8
V609741
p1832
sg10
I00
sg11
V6350786630982913485
p1833
sg13
I1501839625872
sg14
I1
sg15
I-30820118
sg16
VSchoolhouse Rd (Kylemore)
p1834
sg18
V6350927368470667636
p1835
sg20
I189557788
sg21
I0
sg22
I1
sbag1
(g2
g3
Ntp1836
Rp1837
(dp1838
g7
I240
sg8
V609731
p1839
sg10
I00
sg11
V6350786630982913475
p1840
sg13
I1501839625872
sg14
I1
sg15
I-30794022
sg16
VSchoolhouse Road (Monaleen GAA)
p1841
sg18
V6350927368470667635
p1842
sg20
I189564880
sg21
I0
sg22
I1
sbag1
(g2
g3
Ntp1843
Rp1844
(dp1845
g7
I338
sg8
V609751
p1846
sg10
I00
sg11
V6350786630982913495
p1847
sg13
I1501839625872
sg14
I1
sg15
I-30833896
sg16
VGolf Links Rd (Fox Hollow)
p1848
sg18
V6350927368470667637
p1849
sg20
I189555934
sg21
I0
sg22
I1
sbag1
(g2
g3
Ntp1850
Rp1851
(dp1852
g7
I120
sg8
V609571
p1853
sg10
I00
sg11
V6350786630982913315
p1854
sg13
I1501839625747
sg14
I1
sg15
I-31222789
sg16
VCoonagh Cross (Hill Side)
p1855
sg18
V6350927368470664196
p1856
sg20
I189626407
sg21
I0
sg22
I1
sbag1
(g2
g3
Ntp1857
Rp1858
(dp1859
g7
I285
sg8
V609591
p1860
sg10
I00
sg11
V6350786630982913335
p1861
sg13
I1501839625770
sg14
I1
sg15
I-31074527
sg16
VBarrington St (At No 24)
p1862
sg18
V6350927368470664915
p1863
sg20
I189570031
sg21
I0
sg22
I1
sbag1
(g2
g3
Ntp1864
Rp1865
(dp1866
g7
I318
sg8
V332011
p1867
sg10
I00
sg11
V6350786630982635755
p1868
sg13
I1501839625596
sg14
I1
sg15
I-30972705
sg16
VLarkins Cross (Post Box)
p1869
sg18
V6350927368470660858
p1870
sg20
I189683399
sg21
I0
sg22
I1
sbag1
(g2
g3
Ntp1871
Rp1872
(dp1873
g7
I225
sg8
V609601
p1874
sg10
I00
sg11
V6350786630982913345
p1875
sg13
I1501839625770
sg14
I1
sg15
I-31266813
sg16
VPatrickswell Rd (Opp Rehab Care)
p1876
sg18
V6350927368470664916
p1877
sg20
I189416023
sg21
I0
sg22
I1
sbag1
(g2
g3
Ntp1878
Rp1879
(dp1880
g7
I59
sg8
V332001
p1881
sg10
I00
sg11
V6350786630982635745
p1882
sg13
I1501839625596
sg14
I1
sg15
I-31152496
sg16
VBallycannon (Meelick Tavern)
p1883
sg18
V6350927368470660857
p1884
sg20
I189724013
sg21
I0
sg22
I1
sbag1
(g2
g3
Ntp1885
Rp1886
(dp1887
g7
I260
sg8
V607731
p1888
sg10
I00
sg11
V6350786630982911475
p1889
sg13
I1501839625713
sg14
I1
sg15
I-31022812
sg16
VChilders Rd (ALDI Store)
p1890
sg18
V6350927368470663425
p1891
sg20
I189535033
sg21
I0
sg22
I1
sbag1
(g2
g3
Ntp1892
Rp1893
(dp1894
g7
I160
sg8
V607431
p1895
sg10
I00
sg11
V6350786630982911175
p1896
sg13
I1501839625712
sg14
I1
sg15
I-31121148
sg16
VBallynanty (Community Centre)
p1897
sg18
V6350927368470663396
p1898
sg20
I189638699
sg21
I0
sg22
I1
sbag1
(g2
g3
Ntp1899
Rp1900
(dp1901
g7
I350
sg8
V609271
p1902
sg10
I00
sg11
V6350786630982913015
p1903
sg13
I1501839625723
sg14
I1
sg15
I-30970512
sg16
VO Malley Pk (Opp 158 Sunny Hghts)
p1904
sg18
V6350927368470663576
p1905
sg20
I189532371
sg21
I0
sg22
I1
sbag1
(g2
g3
Ntp1906
Rp1907
(dp1908
g7
I20
sg8
V609161
p1909
sg10
I00
sg11
V6350786630982912905
p1910
sg13
I1501839625722
sg14
I1
sg15
I-31090136
sg16
VO Callaghan Ave (No 25 Killeely Rd)
p1911
sg18
V6350927368470663565
p1912
sg20
I189634479
sg21
I0
sg22
I1
sbag1
(g2
g3
Ntp1913
Rp1914
(dp1915
g7
I260
sg8
V607701
p1916
sg10
I00
sg11
V6350786630982911445
p1917
sg13
I1501839625713
sg14
I1
sg15
I-30879612
sg16
VDublin Rd (Groody Roundabout)
p1918
sg18
V6350927368470663422
p1919
sg20
I189596595
sg21
I0
sg22
I1
sbag1
(g2
g3
Ntp1920
Rp1921
(dp1922
g7
I105
sg8
V607441
p1923
sg10
I00
sg11
V6350786630982911185
p1924
sg13
I1501839625712
sg14
I1
sg15
I-31091604
sg16
VSexton St Nth (De Valera Pk)
p1925
sg18
V6350927368470663397
p1926
sg20
I189620104
sg21
I0
sg22
I1
sbag1
(g2
g3
Ntp1927
Rp1928
(dp1929
g7
I257
sg8
V608271
p1930
sg10
I00
sg11
V6350786630982912015
p1931
sg13
I1501839625716
sg14
I1
sg15
I-30989988
sg16
VSth Claughan Rd (No 25)
p1932
sg18
V6350927368470663478
p1933
sg20
I189580863
sg21
I0
sg22
I1
sbag1
(g2
g3
Ntp1934
Rp1935
(dp1936
g7
I225
sg8
V608261
p1937
sg10
I00
sg11
V6350786630982912005
p1938
sg13
I1501839625716
sg14
I1
sg15
I-30976808
sg16
VWell Field (Richmond RFC Pitch)
p1939
sg18
V6350927368470663477
p1940
sg20
I189581400
sg21
I0
sg22
I1
sbag1
(g2
g3
Ntp1941
Rp1942
(dp1943
g7
I200
sg8
V608291
p1944
sg10
I00
sg11
V6350786630982912035
p1945
sg13
I1501839625716
sg14
I1
sg15
I-31010220
sg16
VMarkets Field Terrace (No 9)
p1946
sg18
V6350927368470663480
p1947
sg20
I189574635
sg21
I0
sg22
I1
sbag1
(g2
g3
Ntp1948
Rp1949
(dp1950
g7
I260
sg8
V608281
p1951
sg10
I00
sg11
V6350786630982912025
p1952
sg13
I1501839625716
sg14
I1
sg15
I-31002156
sg16
VSth Claughan Rd (No 7)
p1953
sg18
V6350927368470663479
p1954
sg20
I189579243
sg21
I0
sg22
I1
sbag1
(g2
g3
Ntp1955
Rp1956
(dp1957
g7
I80
sg8
V609251
p1958
sg10
I00
sg11
V6350786630982912995
p1959
sg13
I1501839625722
sg14
I1
sg15
I-30982298
sg16
VO Malley Pk (Castle Oaks View)
p1960
sg18
V6350927368470663574
p1961
sg20
I189524621
sg21
I0
sg22
I1
sbag1
(g2
g3
Ntp1962
Rp1963
(dp1964
g7
I62
sg8
V609261
p1965
sg10
I00
sg11
V6350786630982913005
p1966
sg13
I1501839625723
sg14
I1
sg15
I-30971641
sg16
VO Malley Pk (Outside No 391)
p1967
sg18
V6350927368470663575
p1968
sg20
I189527640
sg21
I0
sg22
I1
sbag1
(g2
g3
Ntp1969
Rp1970
(dp1971
g7
I75
sg8
V609231
p1972
sg10
I00
sg11
V6350786630982912975
p1973
sg13
I1501839625722
sg14
I1
sg15
I-31006440
sg16
VCollins Ave (Olympic Arms Galvone)
p1974
sg18
V6350927368470663572
p1975
sg20
I189527583
sg21
I0
sg22
I1
sbag1
(g2
g3
Ntp1976
Rp1977
(dp1978
g7
I138
sg8
V609241
p1979
sg10
I00
sg11
V6350786630982912985
p1980
sg13
I1501839625722
sg14
I1
sg15
I-30994020
sg16
VO Malley Pk (Southill Health Centre)
p1981
sg18
V6350927368470663573
p1982
sg20
I189523515
sg21
I0
sg22
I1
sbag1
(g2
g3
Ntp1983
Rp1984
(dp1985
g7
I330
sg8
V607921
p1986
sg10
I00
sg11
V6350786630982911665
p1987
sg13
I1501839625871
sg14
I1
sg15
I-31149003
sg16
VBallycummin Rd (Opp Southland House)
p1988
sg18
V6350927368470667616
p1989
sg20
I189449503
sg21
I0
sg22
I1
sbag1
(g2
g3
Ntp1990
Rp1991
(dp1992
g7
I200
sg8
V606921
p1993
sg10
I00
sg11
V6350786630982910665
p1994
sg13
I1501839625710
sg14
I1
sg15
I-31188334
sg16
VCaherdavin (Jctn of Derravaragh Rd)
p1995
sg18
V6350927368470663345
p1996
sg20
I189619023
sg21
I0
sg22
I1
sbag1
(g2
g3
Ntp1997
Rp1998
(dp1999
g7
I135
sg8
V607931
p2000
sg10
I00
sg11
V6350786630982911675
p2001
sg13
I1501839625714
sg14
I1
sg15
I-31173435
sg16
VChurch Rd (Forge Estate)
p2002
sg18
V6350927368470663444
p2003
sg20
I189464970
sg21
I0
sg22
I1
sbag1
(g2
g3
Ntp2004
Rp2005
(dp2006
g7
I320
sg8
V608991
p2007
sg10
I00
sg11
V6350786630982912735
p2008
sg13
I1501839625721
sg14
I1
sg15
I-31119588
sg16
VMoyross (Opp Corpus Christy Church)
p2009
sg18
V6350927368470663550
p2010
sg20
I189650847
sg21
I0
sg22
I1
sbag1
(g2
g3
Ntp2011
Rp2012
(dp2013
g7
I340
sg8
V608961
p2014
sg10
I00
sg11
V6350786630982912705
p2015
sg13
I1501839625721
sg14
I1
sg15
I-31119721
sg16
VKnockalisheen Rd (No 46 Sarsfield Garden
p2016
sg18
V6350927368470663547
p2017
sg20
I189662520
sg21
I0
sg22
I1
sbag1
(g2
g3
Ntp2018
Rp2019
(dp2020
g7
I160
sg8
V608971
p2021
sg10
I00
sg11
V6350786630982912715
p2022
sg13
I1501839625721
sg14
I1
sg15
I-31129351
sg16
VSarsfield Gdns Lr (At Whitecross Gdns)
p2023
sg18
V6350927368470663548
p2024
sg20
I189661531
sg21
I0
sg22
I1
sbag1
(g2
g3
Ntp2025
Rp2026
(dp2027
g7
I265
sg8
V609011
p2028
sg10
I00
sg11
V6350786630982912755
p2029
sg13
I1501839625721
sg14
I1
sg15
I-31154481
sg16
VPineview Gardens Entrance
p2030
sg18
V6350927368470663552
p2031
sg20
I189657736
sg21
I0
sg22
I1
sbag1
(g2
g3
Ntp2032
Rp2033
(dp2034
g7
I20
sg8
V609071
p2035
sg10
I00
sg11
V6350786630982912815
p2036
sg13
I1501839625722
sg14
I1
sg15
I-31118760
sg16
VBallycummin (Opp No 7 The Forts)
p2037
sg18
V6350927368470663558
p2038
sg20
I189459363
sg21
I0
sg22
I1
sbag1
(g2
g3
Ntp2039
Rp2040
(dp2041
g7
I20
sg8
V609061
p2042
sg10
I00
sg11
V6350786630982912805
p2043
sg13
I1501839625722
sg14
I1
sg15
I-31123944
sg16
VBallycummin (Opp No 26 Rathmore)
p2044
sg18
V6350927368470663557
p2045
sg20
I189451839
sg21
I0
sg22
I1
sbag1
(g2
g3
Ntp2046
Rp2047
(dp2048
g7
I20
sg8
V609081
p2049
sg10
I00
sg11
V6350786630982912825
p2050
sg13
I1501839625722
sg14
I1
sg15
I-31116035
sg16
VDooradoyle Rd (Cormac Byrnes)
p2051
sg18
V6350927368470663559
p2052
sg20
I189474964
sg21
I0
sg22
I1
sbag1
(g2
g3
Ntp2053
Rp2054
(dp2055
g7
I150
sg8
V608981
p2056
sg10
I00
sg11
V6350786630982912725
p2057
sg13
I1501839625721
sg14
I1
sg15
I-31119800
sg16
VSarsfield Gdns (Business Centre)
p2058
sg18
V6350927368470663549
p2059
sg20
I189659267
sg21
I0
sg22
I1
sbag1
(g2
g3
Ntp2060
Rp2061
(dp2062
g7
I340
sg8
V311661
p2063
sg10
I00
sg11
V6350786630982615405
p2064
sg13
I1501839625871
sg14
I1
sg15
I-31205484
sg16
VSt Nessans National School
p2065
sg18
V6350927368470667608
p2066
sg20
I189473270
sg21
I0
sg22
I1
sbag1
(g2
g3
Ntp2067
Rp2068
(dp2069
g7
I359
sg8
V606851
p2070
sg10
I00
sg11
V6350786630982910595
p2071
sg13
I1501839625710
sg14
I1
sg15
I-31105152
sg16
VShelbourne Rd (Opp Shelbourne Pk)
p2072
sg18
V6350927368470663338
p2073
sg20
I189613767
sg21
I0
sg22
I1
sbag1
(g2
g3
Ntp2074
Rp2075
(dp2076
g7
I250
sg8
V609021
p2077
sg10
I00
sg11
V6350786630982912765
p2078
sg13
I1501839625721
sg14
I1
sg15
I-31170587
sg16
VFr Russell Rd (Op No 5 Rosebrook Est)
p2079
sg18
V6350927368470663553
p2080
sg20
I189496881
sg21
I0
sg22
I1
sbag1
(g2
g3
Ntp2081
Rp2082
(dp2083
g7
I280
sg8
V609001
p2084
sg10
I00
sg11
V6350786630982912745
p2085
sg13
I1501839625721
sg14
I1
sg15
I-31132635
sg16
VMoyross (Opp Community Centre)
p2086
sg18
V6350927368470663551
p2087
sg20
I189653008
sg21
I0
sg22
I1
sbag1
(g2
g3
Ntp2088
Rp2089
(dp2090
g7
I170
sg8
V608831
p2091
sg10
I00
sg11
V6350786630982912575
p2092
sg13
I1501839625720
sg14
I1
sg15
I-31062043
sg16
VSt Marys Pk (At No 122 St Itas St)
p2093
sg18
V6350927368470663534
p2094
sg20
I189640184
sg21
I0
sg22
I1
sbag1
(g2
g3
Ntp2095
Rp2096
(dp2097
g7
I45
sg8
V608771
p2098
sg10
I00
sg11
V6350786630982912515
p2099
sg13
I1501839625720
sg14
I1
sg15
I-31059955
sg16
VLiddy St (Old Dunnes Stores)
p2100
sg18
V6350927368470663528
p2101
sg20
I189593075
sg21
I0
sg22
I1
sbag1
(g2
g3
Ntp2102
Rp2103
(dp2104
g7
I20
sg8
V333741
p2105
sg10
I00
sg11
V6350786630982637485
p2106
sg13
I1501839625805
sg14
I1
sg15
I-31162838
sg16
VBallycannon (Opp Meelick Foodstore)
p2107
sg18
V6350927368470665814
p2108
sg20
I189720309
sg21
I0
sg22
I1
sbag1
(g2
g3
Ntp2109
Rp2110
(dp2111
g7
I225
sg8
V333731
p2112
sg10
I00
sg11
V6350786630982637475
p2113
sg13
I1501839625805
sg14
I1
sg15
I-31152351
sg16
VBallycannon (Opp Meelick Tavern)
p2114
sg18
V6350927368470665813
p2115
sg20
I189723452
sg21
I0
sg22
I1
sbag1
(g2
g3
Ntp2116
Rp2117
(dp2118
g7
I10
sg8
V609701
p2119
sg10
I00
sg11
V6350786630982913445
p2120
sg13
I1501839625771
sg14
I1
sg15
I-31052917
sg16
VParnell St (Ladbrokes)
p2121
sg18
V6350927368470664923
p2122
sg20
I189570949
sg21
I0
sg22
I1
sbag1
(g2
g3
Ntp2123
Rp2124
(dp2125
g7
I350
sg8
V608801
p2126
sg10
I00
sg11
V6350786630982912545
p2127
sg13
I1501839625720
sg14
I1
sg15
I-31054644
sg16
VSt Itas St (Kings Island Creche)
p2128
sg18
V6350927368470663531
p2129
sg20
I189624495
sg21
I0
sg22
I1
sbag1
(g2
g3
Ntp2130
Rp2131
(dp2132
g7
I350
sg8
V608811
p2133
sg10
I00
sg11
V6350786630982912555
p2134
sg13
I1501839625720
sg14
I1
sg15
I-31057601
sg16
VSt Itas St (No 2)
p2135
sg18
V6350927368470663532
p2136
sg20
I189629537
sg21
I0
sg22
I1
sbag1
(g2
g3
Ntp2137
Rp2138
(dp2139
g7
I350
sg8
V608821
p2140
sg10
I00
sg11
V6350786630982912565
p2141
sg13
I1501839625720
sg14
I1
sg15
I-31059329
sg16
VSt Itas St (No 34)
p2142
sg18
V6350927368470663533
p2143
sg20
I189633625
sg21
I0
sg22
I1
sbag1
(g2
g3
Ntp2144
Rp2145
(dp2146
g7
I108
sg8
V608211
p2147
sg10
I00
sg11
V6350786630982911955
p2148
sg13
I1501839625715
sg14
I1
sg15
I-31060362
sg16
VUpper Mallow St (Jctn Pery Sq)
p2149
sg18
V6350927368470663472
p2150
sg20
I189573042
sg21
I0
sg22
I1
sbag1
(g2
g3
Ntp2151
Rp2152
(dp2153
g7
I350
sg8
V608251
p2154
sg10
I00
sg11
V6350786630982911995
p2155
sg13
I1501839625716
sg14
I1
sg15
I-30967704
sg16
VSt Patricks Rd (St Brigids Church)
p2156
sg18
V6350927368470663476
p2157
sg20
I189572871
sg21
I0
sg22
I1
sbag1
(g2
g3
Ntp2158
Rp2159
(dp2160
g7
I45
sg8
V609671
p2161
sg10
I00
sg11
V6350786630982913415
p2162
sg13
I1501839625771
sg14
I1
sg15
I-31266342
sg16
VPatrickswell Road (Rehab Care)
p2163
sg18
V6350927368470664920
p2164
sg20
I189416998
sg21
I0
sg22
I1
sbag1
(g2
g3
Ntp2165
Rp2166
(dp2167
g7
I171
sg8
V609721
p2168
sg10
I00
sg11
V6350786630982913465
p2169
sg13
I1501839625872
sg14
I1
sg15
I-30780126
sg16
VMonaleen (Opp Hazel Hall)
p2170
sg18
V6350927368470667634
p2171
sg20
I189581147
sg21
I0
sg22
I1
sbag1
(g2
g3
Ntp2172
Rp2173
(dp2174
g7
I270
sg8
V607751
p2175
sg10
I00
sg11
V6350786630982911495
p2176
sg13
I1501839625713
sg14
I1
sg15
I-31076950
sg16
VChilders Rd (Op Lady of Lourdes Cntr)
p2177
sg18
V6350927368470663426
p2178
sg20
I189533124
sg21
I0
sg22
I1
sbag1
(g2
g3
Ntp2179
Rp2180
(dp2181
g7
I200
sg8
V607761
p2182
sg10
I00
sg11
V6350786630982911505
p2183
sg13
I1501839625713
sg14
I1
sg15
I-31098062
sg16
VBallinacurra (Sandyville)
p2184
sg18
V6350927368470663427
p2185
sg20
I189531828
sg21
I0
sg22
I1
sbag1
(g2
g3
Ntp2186
Rp2187
(dp2188
g7
I280
sg8
V608241
p2189
sg10
I00
sg11
V6350786630982911985
p2190
sg13
I1501839625715
sg14
I1
sg15
I-30967092
sg16
VCathal Brugha Rd (Op No 1 Lynwood Pk)
p2191
sg18
V6350927368470663475
p2192
sg20
I189566967
sg21
I0
sg22
I1
sbag1
(g2
g3
Ntp2193
Rp2194
(dp2195
g7
I100
sg8
V608231
p2196
sg10
I00
sg11
V6350786630982911975
p2197
sg13
I1501839625715
sg14
I1
sg15
I-30962448
sg16
VLynwood Park (Toghers Shop)
p2198
sg18
V6350927368470663474
p2199
sg20
I189571720
sg21
I0
sg22
I1
sba.