(lp0
ccopy_reg
_reconstructor
p1
(cinc.baseclasses
Bus
p2
c__builtin__
object
p3
Ntp4
Rp5
(dp6
S'category'
p7
I5
sS'bearing'
p8
I71
sS'has_bike_rack'
p9
I0
sS'is_deleted'
p10
I00
sS'vehicle_number'
p11
I668
sS'duid'
p12
V6352185209772835484
p13
sS'tripDuid'
p14
V6349931210986379688
p15
sS'is_accessible'
p16
I0
sS'last_modification_timestamp'
p17
I1502105864068
sS'reference_time'
p18
I1502105863
sS'longitude'
p19
I-31031216
sS'geo_position_status'
p20
I1
sS'patternDuid'
p21
V6351558488860617477
p22
sS'operational_number'
p23
I668
sS'latitude'
p24
I189577855
sS'foo'
p25
I0
sbag1
(g2
g3
Ntp26
Rp27
(dp28
g7
I5
sg8
I0
sg9
I0
sg10
I00
sg11
I588
sg12
V6352185209772835404
p29
sg14
I0
sg16
I0
sg17
I1502105857064
sg18
I1502105856
sg19
I-31018503
sg20
I4
sg21
I0
sg23
I588
sg24
I189557288
sg25
I0
sbag1
(g2
g3
Ntp30
Rp31
(dp32
g7
I5
sg8
I183
sg9
I0
sg10
I00
sg11
I673
sg12
V6352185209772835489
p33
sg14
V6349931210952300670
p34
sg16
I0
sg17
I1502105873085
sg18
I1502105872
sg19
I-31029855
sg20
I1
sg21
V6351558488828340998
p35
sg23
I673
sg24
I189526879
sg25
I0
sbag1
(g2
g3
Ntp36
Rp37
(dp38
g7
I5
sg8
I123
sg9
I0
sg10
I00
sg11
I241
sg12
V6352185209772835057
p39
sg14
V6349931210952366272
p40
sg16
I0
sg17
I1502105872087
sg18
I1502105871
sg19
I-31051268
sg20
I1
sg21
V6351558488868743944
p41
sg23
I241
sg24
I189587970
sg25
I0
sbag1
(g2
g3
Ntp42
Rp43
(dp44
g7
I5
sg8
I305
sg9
I0
sg10
I00
sg11
I874
sg12
V6352185209772835690
p45
sg14
V6349931210952222260
p46
sg16
I0
sg17
I1502105855067
sg18
I1502105854
sg19
I-31138890
sg20
I1
sg21
V6351558488804215564
p47
sg23
I874
sg24
I189628224
sg25
I0
sbag1
(g2
g3
Ntp48
Rp49
(dp50
g7
I5
sg8
I266
sg9
I0
sg10
I00
sg11
I221
sg12
V6352185209772835037
p51
sg14
V6349931210952366288
p52
sg16
I0
sg17
I1502105865067
sg18
I1502105864
sg19
I-30857620
sg20
I1
sg21
V6351558488844749576
p53
sg23
I221
sg24
I189621457
sg25
I0
sbag1
(g2
g3
Ntp54
Rp55
(dp56
g7
I5
sg8
I49
sg9
I0
sg10
I00
sg11
I876
sg12
V6352185209772835692
p57
sg14
V6349931210952169540
p58
sg16
I0
sg17
I1502105874084
sg18
I1502105872
sg19
I-31138086
sg20
I1
sg21
V6351558488796392200
p59
sg23
I876
sg24
I189508763
sg25
I0
sbag1
(g2
g3
Ntp60
Rp61
(dp62
g7
I5
sg8
I305
sg9
I0
sg10
I00
sg11
I931
sg12
V6352185209772835747
p63
sg14
V6349931210939322886
p64
sg16
I0
sg17
I1502105878093
sg18
I1502105877
sg19
I-31413291
sg20
I1
sg21
V6351558488798329603
p65
sg23
I931
sg24
I189666519
sg25
I0
sbag1
(g2
g3
Ntp66
Rp67
(dp68
g7
I5
sg8
I241
sg9
I0
sg10
I00
sg11
I658
sg12
V6352185209772835474
p69
sg14
V6349931210986379690
p70
sg16
I0
sg17
I1502105869076
sg18
I1502105867
sg19
I-30795247
sg20
I1
sg21
V6351558488820636422
p71
sg23
I658
sg24
I189564491
sg25
I0
sbag1
(g2
g3
Ntp72
Rp73
(dp74
g7
I5
sg8
I214
sg9
I0
sg10
I00
sg11
I579
sg12
V6352185209772835395
p75
sg14
V6349931210951309014
p76
sg16
I0
sg17
I1502105870074
sg18
I1502105869
sg19
I-31049827
sg20
I1
sg21
V6351558488782609155
p77
sg23
I579
sg24
I189571954
sg25
I0
sbag1
(g2
g3
Ntp78
Rp79
(dp80
g7
I5
sg8
I33
sg9
I0
sg10
I00
sg11
I367
sg12
V6352185209772835183
p81
sg14
V6349931210953675724
p82
sg16
I0
sg17
I1502105860075
sg18
I1502105859
sg19
I-31065942
sg20
I1
sg21
V6351558488780643076
p83
sg23
I367
sg24
I189587351
sg25
I0
sbag1
(g2
g3
Ntp84
Rp85
(dp86
g7
I5
sg8
I214
sg9
I0
sg10
I00
sg11
I114
sg12
V6352185209772834930
p87
sg14
V6349931210985790201
p88
sg16
I0
sg17
I1502105852087
sg18
I1502105851
sg19
I-31049827
sg20
I1
sg21
V6351558488789867270
p89
sg23
I114
sg24
I189571954
sg25
I0
sbag1
(g2
g3
Ntp90
Rp91
(dp92
g7
I5
sg8
I214
sg9
I0
sg10
I00
sg11
I595
sg12
V6352185209772835411
p93
sg14
V6349931210965080631
p94
sg16
I0
sg17
I1502105869076
sg18
I1502105868
sg19
I-31049827
sg20
I1
sg21
V6351558488821746435
p95
sg23
I595
sg24
I189571954
sg25
I0
sbag1
(g2
g3
Ntp96
Rp97
(dp98
g7
I5
sg8
I222
sg9
I0
sg10
I00
sg11
I873
sg12
V6352185209772835689
p99
sg14
V6349931210952366288
p100
sg16
I0
sg17
I1502105869076
sg18
I1502105867
sg19
I-31169154
sg20
I1
sg21
V6351558488868739851
p101
sg23
I873
sg24
I189476263
sg25
I0
sbag1
(g2
g3
Ntp102
Rp103
(dp104
g7
I5
sg8
I180
sg9
I0
sg10
I00
sg11
I10
sg12
V6352185209772834826
p105
sg14
I0
sg16
I0
sg17
I1502105874084
sg18
I1502105873
sg19
I-31049001
sg20
I4
sg21
I0
sg23
I10
sg24
I189566142
sg25
I0
sbag1
(g2
g3
Ntp106
Rp107
(dp108
g7
I5
sg8
I166
sg9
I0
sg10
I00
sg11
I877
sg12
V6352185209772835693
p109
sg14
V6349931210952431841
p110
sg16
I0
sg17
I1502105870074
sg18
I1502105869
sg19
I-31062125
sg20
I1
sg21
V6351558488780638988
p111
sg23
I877
sg24
I189640174
sg25
I0
sbag1
(g2
g3
Ntp112
Rp113
(dp114
g7
I5
sg8
I214
sg9
I0
sg10
I00
sg11
I705
sg12
V6352185209772835521
p115
sg14
V6349931210951184855
p116
sg16
I0
sg17
I1502105863070
sg18
I1502105862
sg19
I-31049827
sg20
I1
sg21
V6351558488837733123
p117
sg23
I705
sg24
I189571954
sg25
I0
sbag1
(g2
g3
Ntp118
Rp119
(dp120
g7
I5
sg8
I164
sg9
I0
sg10
I00
sg11
I676
sg12
V6352185209772835492
p121
sg14
V6349931210952169549
p122
sg16
I0
sg17
I1502105867079
sg18
I1502105866
sg19
I-31050551
sg20
I1
sg21
V6351558488836336390
p123
sg23
I676
sg24
I189568785
sg25
I0
sbag1
(g2
g3
Ntp124
Rp125
(dp126
g7
I5
sg8
I20
sg9
I0
sg10
I00
sg11
I515
sg12
V6352185209772835331
p127
sg14
V6349931210953675724
p128
sg16
I0
sg17
I1502105872087
sg18
I1502105871
sg19
I-31053966
sg20
I1
sg21
V6351558488796896004
p129
sg23
I515
sg24
I189569030
sg25
I0
sbag1
(g2
g3
Ntp130
Rp131
(dp132
g7
I5
sg8
I214
sg9
I0
sg10
I00
sg11
I701
sg12
V6352185209772835517
p133
sg14
V6349931210951248925
p134
sg16
I0
sg17
I1502105870074
sg18
I1502105869
sg19
I-31049827
sg20
I1
sg21
V6351558488765745923
p135
sg23
I701
sg24
I189571954
sg25
I0
sbag1
(g2
g3
Ntp136
Rp137
(dp138
g7
I5
sg8
I288
sg9
I0
sg10
I00
sg11
I672
sg12
V6352185209772835488
p139
sg14
V6349931210952300733
p140
sg16
I0
sg17
I1502105875082
sg18
I1502105874
sg19
I-31131255
sg20
I1
sg21
V6351558488852343558
p141
sg23
I672
sg24
I189652834
sg25
I0
sbag1
(g2
g3
Ntp142
Rp143
(dp144
g7
I5
sg8
I159
sg9
I0
sg10
I00
sg11
I671
sg12
V6352185209772835487
p145
sg14
V6349931210952169540
p146
sg16
I0
sg17
I1502105878077
sg18
I1502105877
sg19
I-30952769
sg20
I1
sg21
V6351558488764312327
p147
sg23
I671
sg24
I189666925
sg25
I0
sbag1
(g2
g3
Ntp148
Rp149
(dp150
g7
I5
sg8
I207
sg9
I0
sg10
I00
sg11
I677
sg12
V6352185209772835493
p151
sg14
V6349931210986379690
p152
sg16
I0
sg17
I1502105855067
sg18
I1502105854
sg19
I-31183060
sg20
I1
sg21
V6351558488804322053
p153
sg23
I677
sg24
I189463665
sg25
I0
sba.